
test：     文件格式 elf32-i386


Disassembly of section .text:

080480e0 <fork>:
 80480e0:	55                   	push   %ebp
 80480e1:	89 e5                	mov    %esp,%ebp
 80480e3:	83 ec 08             	sub    $0x8,%esp
 80480e6:	83 ec 0c             	sub    $0xc,%esp
 80480e9:	6a 01                	push   $0x1
 80480eb:	e8 50 01 00 00       	call   8048240 <sys_call_1>
 80480f0:	83 c4 10             	add    $0x10,%esp
 80480f3:	c9                   	leave  
 80480f4:	c3                   	ret    

080480f5 <_exit>:
 80480f5:	55                   	push   %ebp
 80480f6:	89 e5                	mov    %esp,%ebp
 80480f8:	83 ec 08             	sub    $0x8,%esp
 80480fb:	8b 45 08             	mov    0x8(%ebp),%eax
 80480fe:	83 ec 08             	sub    $0x8,%esp
 8048101:	50                   	push   %eax
 8048102:	6a 02                	push   $0x2
 8048104:	e8 43 01 00 00       	call   804824c <sys_call_2>
 8048109:	83 c4 10             	add    $0x10,%esp
 804810c:	90                   	nop
 804810d:	c9                   	leave  
 804810e:	c3                   	ret    

0804810f <execve>:
 804810f:	55                   	push   %ebp
 8048110:	89 e5                	mov    %esp,%ebp
 8048112:	83 ec 08             	sub    $0x8,%esp
 8048115:	8b 4d 10             	mov    0x10(%ebp),%ecx
 8048118:	8b 55 0c             	mov    0xc(%ebp),%edx
 804811b:	8b 45 08             	mov    0x8(%ebp),%eax
 804811e:	51                   	push   %ecx
 804811f:	52                   	push   %edx
 8048120:	50                   	push   %eax
 8048121:	6a 03                	push   $0x3
 8048123:	e8 4b 01 00 00       	call   8048273 <sys_call_4>
 8048128:	83 c4 10             	add    $0x10,%esp
 804812b:	c9                   	leave  
 804812c:	c3                   	ret    

0804812d <open>:
 804812d:	55                   	push   %ebp
 804812e:	89 e5                	mov    %esp,%ebp
 8048130:	83 ec 18             	sub    $0x18,%esp
 8048133:	8d 45 10             	lea    0x10(%ebp),%eax
 8048136:	89 45 f4             	mov    %eax,-0xc(%ebp)
 8048139:	83 45 f4 04          	addl   $0x4,-0xc(%ebp)
 804813d:	8b 45 f4             	mov    -0xc(%ebp),%eax
 8048140:	8b 40 fc             	mov    -0x4(%eax),%eax
 8048143:	89 45 f0             	mov    %eax,-0x10(%ebp)
 8048146:	8b 55 0c             	mov    0xc(%ebp),%edx
 8048149:	8b 45 08             	mov    0x8(%ebp),%eax
 804814c:	ff 75 f0             	pushl  -0x10(%ebp)
 804814f:	52                   	push   %edx
 8048150:	50                   	push   %eax
 8048151:	6a 0a                	push   $0xa
 8048153:	e8 1b 01 00 00       	call   8048273 <sys_call_4>
 8048158:	83 c4 10             	add    $0x10,%esp
 804815b:	c9                   	leave  
 804815c:	c3                   	ret    

0804815d <read>:
 804815d:	55                   	push   %ebp
 804815e:	89 e5                	mov    %esp,%ebp
 8048160:	83 ec 08             	sub    $0x8,%esp
 8048163:	8b 55 0c             	mov    0xc(%ebp),%edx
 8048166:	8b 45 08             	mov    0x8(%ebp),%eax
 8048169:	ff 75 10             	pushl  0x10(%ebp)
 804816c:	52                   	push   %edx
 804816d:	50                   	push   %eax
 804816e:	6a 0b                	push   $0xb
 8048170:	e8 fe 00 00 00       	call   8048273 <sys_call_4>
 8048175:	83 c4 10             	add    $0x10,%esp
 8048178:	c9                   	leave  
 8048179:	c3                   	ret    

0804817a <write>:
 804817a:	55                   	push   %ebp
 804817b:	89 e5                	mov    %esp,%ebp
 804817d:	83 ec 08             	sub    $0x8,%esp
 8048180:	8b 55 0c             	mov    0xc(%ebp),%edx
 8048183:	8b 45 08             	mov    0x8(%ebp),%eax
 8048186:	ff 75 10             	pushl  0x10(%ebp)
 8048189:	52                   	push   %edx
 804818a:	50                   	push   %eax
 804818b:	6a 0c                	push   $0xc
 804818d:	e8 e1 00 00 00       	call   8048273 <sys_call_4>
 8048192:	83 c4 10             	add    $0x10,%esp
 8048195:	c9                   	leave  
 8048196:	c3                   	ret    

08048197 <close>:
 8048197:	55                   	push   %ebp
 8048198:	89 e5                	mov    %esp,%ebp
 804819a:	83 ec 08             	sub    $0x8,%esp
 804819d:	8b 45 08             	mov    0x8(%ebp),%eax
 80481a0:	83 ec 08             	sub    $0x8,%esp
 80481a3:	50                   	push   %eax
 80481a4:	6a 0e                	push   $0xe
 80481a6:	e8 a1 00 00 00       	call   804824c <sys_call_2>
 80481ab:	83 c4 10             	add    $0x10,%esp
 80481ae:	c9                   	leave  
 80481af:	c3                   	ret    

080481b0 <lseek>:
 80481b0:	55                   	push   %ebp
 80481b1:	89 e5                	mov    %esp,%ebp
 80481b3:	83 ec 08             	sub    $0x8,%esp
 80481b6:	8b 4d 10             	mov    0x10(%ebp),%ecx
 80481b9:	8b 55 0c             	mov    0xc(%ebp),%edx
 80481bc:	8b 45 08             	mov    0x8(%ebp),%eax
 80481bf:	51                   	push   %ecx
 80481c0:	52                   	push   %edx
 80481c1:	50                   	push   %eax
 80481c2:	6a 0d                	push   $0xd
 80481c4:	e8 aa 00 00 00       	call   8048273 <sys_call_4>
 80481c9:	83 c4 10             	add    $0x10,%esp
 80481cc:	c9                   	leave  
 80481cd:	c3                   	ret    

080481ce <fsync>:
 80481ce:	55                   	push   %ebp
 80481cf:	89 e5                	mov    %esp,%ebp
 80481d1:	83 ec 08             	sub    $0x8,%esp
 80481d4:	8b 45 08             	mov    0x8(%ebp),%eax
 80481d7:	83 ec 08             	sub    $0x8,%esp
 80481da:	50                   	push   %eax
 80481db:	6a 0f                	push   $0xf
 80481dd:	e8 6a 00 00 00       	call   804824c <sys_call_2>
 80481e2:	83 c4 10             	add    $0x10,%esp
 80481e5:	c9                   	leave  
 80481e6:	c3                   	ret    

080481e7 <getc>:
 80481e7:	55                   	push   %ebp
 80481e8:	89 e5                	mov    %esp,%ebp
 80481ea:	83 ec 18             	sub    $0x18,%esp
 80481ed:	83 ec 04             	sub    $0x4,%esp
 80481f0:	6a 01                	push   $0x1
 80481f2:	8d 45 f3             	lea    -0xd(%ebp),%eax
 80481f5:	50                   	push   %eax
 80481f6:	6a 00                	push   $0x0
 80481f8:	e8 60 ff ff ff       	call   804815d <read>
 80481fd:	83 c4 10             	add    $0x10,%esp
 8048200:	89 45 f4             	mov    %eax,-0xc(%ebp)
 8048203:	83 7d f4 00          	cmpl   $0x0,-0xc(%ebp)
 8048207:	7e 09                	jle    8048212 <getc+0x2b>
 8048209:	0f b6 45 f3          	movzbl -0xd(%ebp),%eax
 804820d:	0f be c0             	movsbl %al,%eax
 8048210:	eb 03                	jmp    8048215 <getc+0x2e>
 8048212:	8b 45 f4             	mov    -0xc(%ebp),%eax
 8048215:	c9                   	leave  
 8048216:	c3                   	ret    

08048217 <putc>:
 8048217:	55                   	push   %ebp
 8048218:	89 e5                	mov    %esp,%ebp
 804821a:	83 ec 18             	sub    $0x18,%esp
 804821d:	8b 45 08             	mov    0x8(%ebp),%eax
 8048220:	88 45 f4             	mov    %al,-0xc(%ebp)
 8048223:	83 ec 04             	sub    $0x4,%esp
 8048226:	6a 01                	push   $0x1
 8048228:	8d 45 f4             	lea    -0xc(%ebp),%eax
 804822b:	50                   	push   %eax
 804822c:	6a 01                	push   $0x1
 804822e:	e8 47 ff ff ff       	call   804817a <write>
 8048233:	83 c4 10             	add    $0x10,%esp
 8048236:	90                   	nop
 8048237:	c9                   	leave  
 8048238:	c3                   	ret    
 8048239:	66 90                	xchg   %ax,%ax
 804823b:	66 90                	xchg   %ax,%ax
 804823d:	66 90                	xchg   %ax,%ax
 804823f:	90                   	nop

08048240 <sys_call_1>:
 8048240:	55                   	push   %ebp
 8048241:	89 e5                	mov    %esp,%ebp
 8048243:	50                   	push   %eax
 8048244:	8b 45 08             	mov    0x8(%ebp),%eax
 8048247:	cd 80                	int    $0x80
 8048249:	58                   	pop    %eax
 804824a:	5d                   	pop    %ebp
 804824b:	c3                   	ret    

0804824c <sys_call_2>:
 804824c:	55                   	push   %ebp
 804824d:	89 e5                	mov    %esp,%ebp
 804824f:	50                   	push   %eax
 8048250:	53                   	push   %ebx
 8048251:	8b 45 08             	mov    0x8(%ebp),%eax
 8048254:	8b 5d 0c             	mov    0xc(%ebp),%ebx
 8048257:	cd 80                	int    $0x80
 8048259:	5b                   	pop    %ebx
 804825a:	58                   	pop    %eax
 804825b:	5d                   	pop    %ebp
 804825c:	c3                   	ret    

0804825d <sys_call_3>:
 804825d:	55                   	push   %ebp
 804825e:	89 e5                	mov    %esp,%ebp
 8048260:	50                   	push   %eax
 8048261:	53                   	push   %ebx
 8048262:	51                   	push   %ecx
 8048263:	8b 45 08             	mov    0x8(%ebp),%eax
 8048266:	8b 5d 0c             	mov    0xc(%ebp),%ebx
 8048269:	8b 4d 10             	mov    0x10(%ebp),%ecx
 804826c:	cd 80                	int    $0x80
 804826e:	59                   	pop    %ecx
 804826f:	5b                   	pop    %ebx
 8048270:	58                   	pop    %eax
 8048271:	5d                   	pop    %ebp
 8048272:	c3                   	ret    

08048273 <sys_call_4>:
 8048273:	55                   	push   %ebp
 8048274:	89 e5                	mov    %esp,%ebp
 8048276:	50                   	push   %eax
 8048277:	53                   	push   %ebx
 8048278:	51                   	push   %ecx
 8048279:	52                   	push   %edx
 804827a:	8b 45 08             	mov    0x8(%ebp),%eax
 804827d:	8b 5d 0c             	mov    0xc(%ebp),%ebx
 8048280:	8b 4d 10             	mov    0x10(%ebp),%ecx
 8048283:	8b 55 14             	mov    0x14(%ebp),%edx
 8048286:	cd 80                	int    $0x80
 8048288:	5a                   	pop    %edx
 8048289:	59                   	pop    %ecx
 804828a:	5b                   	pop    %ebx
 804828b:	58                   	pop    %eax
 804828c:	5d                   	pop    %ebp
 804828d:	c3                   	ret    

0804828e <_start>:
 804828e:	55                   	push   %ebp
 804828f:	89 e5                	mov    %esp,%ebp
 8048291:	83 ec 18             	sub    $0x18,%esp
 8048294:	c7 45 f4 00 c1 04 08 	movl   $0x804c100,-0xc(%ebp)
 804829b:	c7 45 f0 04 c9 04 08 	movl   $0x804c904,-0x10(%ebp)
 80482a2:	eb 0a                	jmp    80482ae <_start+0x20>
 80482a4:	8b 45 f4             	mov    -0xc(%ebp),%eax
 80482a7:	c6 00 00             	movb   $0x0,(%eax)
 80482aa:	83 45 f4 01          	addl   $0x1,-0xc(%ebp)
 80482ae:	8b 45 f4             	mov    -0xc(%ebp),%eax
 80482b1:	3b 45 f0             	cmp    -0x10(%ebp),%eax
 80482b4:	72 ee                	jb     80482a4 <_start+0x16>
 80482b6:	83 ec 08             	sub    $0x8,%esp
 80482b9:	ff 75 0c             	pushl  0xc(%ebp)
 80482bc:	ff 75 08             	pushl  0x8(%ebp)
 80482bf:	e8 57 1c 00 00       	call   8049f1b <main>
 80482c4:	83 c4 10             	add    $0x10,%esp
 80482c7:	89 45 ec             	mov    %eax,-0x14(%ebp)
 80482ca:	83 ec 0c             	sub    $0xc,%esp
 80482cd:	ff 75 ec             	pushl  -0x14(%ebp)
 80482d0:	e8 00 00 00 00       	call   80482d5 <exit>

080482d5 <exit>:
 80482d5:	55                   	push   %ebp
 80482d6:	89 e5                	mov    %esp,%ebp
 80482d8:	83 ec 08             	sub    $0x8,%esp
 80482db:	83 ec 0c             	sub    $0xc,%esp
 80482de:	ff 75 08             	pushl  0x8(%ebp)
 80482e1:	e8 0f fe ff ff       	call   80480f5 <_exit>

080482e6 <__tolower>:
 80482e6:	55                   	push   %ebp
 80482e7:	89 e5                	mov    %esp,%ebp
 80482e9:	83 ec 04             	sub    $0x4,%esp
 80482ec:	8b 45 08             	mov    0x8(%ebp),%eax
 80482ef:	88 45 fc             	mov    %al,-0x4(%ebp)
 80482f2:	0f b6 45 fc          	movzbl -0x4(%ebp),%eax
 80482f6:	0f b6 80 00 c0 04 08 	movzbl 0x804c000(%eax),%eax
 80482fd:	0f b6 c0             	movzbl %al,%eax
 8048300:	83 e0 01             	and    $0x1,%eax
 8048303:	85 c0                	test   %eax,%eax
 8048305:	74 04                	je     804830b <__tolower+0x25>
 8048307:	80 45 fc 20          	addb   $0x20,-0x4(%ebp)
 804830b:	0f b6 45 fc          	movzbl -0x4(%ebp),%eax
 804830f:	c9                   	leave  
 8048310:	c3                   	ret    

08048311 <strnicmp>:
 8048311:	55                   	push   %ebp
 8048312:	89 e5                	mov    %esp,%ebp
 8048314:	83 ec 10             	sub    $0x10,%esp
 8048317:	c6 45 ff 00          	movb   $0x0,-0x1(%ebp)
 804831b:	c6 45 fe 00          	movb   $0x0,-0x2(%ebp)
 804831f:	83 7d 10 00          	cmpl   $0x0,0x10(%ebp)
 8048323:	74 6e                	je     8048393 <strnicmp+0x82>
 8048325:	8b 45 08             	mov    0x8(%ebp),%eax
 8048328:	0f b6 00             	movzbl (%eax),%eax
 804832b:	88 45 ff             	mov    %al,-0x1(%ebp)
 804832e:	8b 45 0c             	mov    0xc(%ebp),%eax
 8048331:	0f b6 00             	movzbl (%eax),%eax
 8048334:	88 45 fe             	mov    %al,-0x2(%ebp)
 8048337:	83 45 08 01          	addl   $0x1,0x8(%ebp)
 804833b:	83 45 0c 01          	addl   $0x1,0xc(%ebp)
 804833f:	80 7d ff 00          	cmpb   $0x0,-0x1(%ebp)
 8048343:	74 47                	je     804838c <strnicmp+0x7b>
 8048345:	80 7d fe 00          	cmpb   $0x0,-0x2(%ebp)
 8048349:	74 44                	je     804838f <strnicmp+0x7e>
 804834b:	0f b6 45 ff          	movzbl -0x1(%ebp),%eax
 804834f:	3a 45 fe             	cmp    -0x2(%ebp),%al
 8048352:	74 2b                	je     804837f <strnicmp+0x6e>
 8048354:	0f b6 45 ff          	movzbl -0x1(%ebp),%eax
 8048358:	50                   	push   %eax
 8048359:	e8 88 ff ff ff       	call   80482e6 <__tolower>
 804835e:	83 c4 04             	add    $0x4,%esp
 8048361:	88 45 ff             	mov    %al,-0x1(%ebp)
 8048364:	0f b6 45 fe          	movzbl -0x2(%ebp),%eax
 8048368:	50                   	push   %eax
 8048369:	e8 78 ff ff ff       	call   80482e6 <__tolower>
 804836e:	83 c4 04             	add    $0x4,%esp
 8048371:	88 45 fe             	mov    %al,-0x2(%ebp)
 8048374:	0f b6 45 ff          	movzbl -0x1(%ebp),%eax
 8048378:	3a 45 fe             	cmp    -0x2(%ebp),%al
 804837b:	75 15                	jne    8048392 <strnicmp+0x81>
 804837d:	eb 01                	jmp    8048380 <strnicmp+0x6f>
 804837f:	90                   	nop
 8048380:	83 6d 10 01          	subl   $0x1,0x10(%ebp)
 8048384:	83 7d 10 00          	cmpl   $0x0,0x10(%ebp)
 8048388:	75 9b                	jne    8048325 <strnicmp+0x14>
 804838a:	eb 07                	jmp    8048393 <strnicmp+0x82>
 804838c:	90                   	nop
 804838d:	eb 04                	jmp    8048393 <strnicmp+0x82>
 804838f:	90                   	nop
 8048390:	eb 01                	jmp    8048393 <strnicmp+0x82>
 8048392:	90                   	nop
 8048393:	0f b6 55 ff          	movzbl -0x1(%ebp),%edx
 8048397:	0f b6 45 fe          	movzbl -0x2(%ebp),%eax
 804839b:	29 c2                	sub    %eax,%edx
 804839d:	89 d0                	mov    %edx,%eax
 804839f:	c9                   	leave  
 80483a0:	c3                   	ret    

080483a1 <strcpy>:
 80483a1:	55                   	push   %ebp
 80483a2:	89 e5                	mov    %esp,%ebp
 80483a4:	83 ec 10             	sub    $0x10,%esp
 80483a7:	8b 45 08             	mov    0x8(%ebp),%eax
 80483aa:	89 45 fc             	mov    %eax,-0x4(%ebp)
 80483ad:	90                   	nop
 80483ae:	8b 45 08             	mov    0x8(%ebp),%eax
 80483b1:	8d 50 01             	lea    0x1(%eax),%edx
 80483b4:	89 55 08             	mov    %edx,0x8(%ebp)
 80483b7:	8b 55 0c             	mov    0xc(%ebp),%edx
 80483ba:	8d 4a 01             	lea    0x1(%edx),%ecx
 80483bd:	89 4d 0c             	mov    %ecx,0xc(%ebp)
 80483c0:	0f b6 12             	movzbl (%edx),%edx
 80483c3:	88 10                	mov    %dl,(%eax)
 80483c5:	0f b6 00             	movzbl (%eax),%eax
 80483c8:	84 c0                	test   %al,%al
 80483ca:	75 e2                	jne    80483ae <strcpy+0xd>
 80483cc:	8b 45 fc             	mov    -0x4(%ebp),%eax
 80483cf:	c9                   	leave  
 80483d0:	c3                   	ret    

080483d1 <strncpy>:
 80483d1:	55                   	push   %ebp
 80483d2:	89 e5                	mov    %esp,%ebp
 80483d4:	83 ec 10             	sub    $0x10,%esp
 80483d7:	8b 45 08             	mov    0x8(%ebp),%eax
 80483da:	89 45 fc             	mov    %eax,-0x4(%ebp)
 80483dd:	90                   	nop
 80483de:	8b 45 10             	mov    0x10(%ebp),%eax
 80483e1:	8d 50 ff             	lea    -0x1(%eax),%edx
 80483e4:	89 55 10             	mov    %edx,0x10(%ebp)
 80483e7:	85 c0                	test   %eax,%eax
 80483e9:	74 1e                	je     8048409 <strncpy+0x38>
 80483eb:	8b 45 08             	mov    0x8(%ebp),%eax
 80483ee:	8d 50 01             	lea    0x1(%eax),%edx
 80483f1:	89 55 08             	mov    %edx,0x8(%ebp)
 80483f4:	8b 55 0c             	mov    0xc(%ebp),%edx
 80483f7:	8d 4a 01             	lea    0x1(%edx),%ecx
 80483fa:	89 4d 0c             	mov    %ecx,0xc(%ebp)
 80483fd:	0f b6 12             	movzbl (%edx),%edx
 8048400:	88 10                	mov    %dl,(%eax)
 8048402:	0f b6 00             	movzbl (%eax),%eax
 8048405:	84 c0                	test   %al,%al
 8048407:	75 d5                	jne    80483de <strncpy+0xd>
 8048409:	8b 45 fc             	mov    -0x4(%ebp),%eax
 804840c:	c9                   	leave  
 804840d:	c3                   	ret    

0804840e <strcat>:
 804840e:	55                   	push   %ebp
 804840f:	89 e5                	mov    %esp,%ebp
 8048411:	83 ec 10             	sub    $0x10,%esp
 8048414:	8b 45 08             	mov    0x8(%ebp),%eax
 8048417:	89 45 fc             	mov    %eax,-0x4(%ebp)
 804841a:	eb 04                	jmp    8048420 <strcat+0x12>
 804841c:	83 45 08 01          	addl   $0x1,0x8(%ebp)
 8048420:	8b 45 08             	mov    0x8(%ebp),%eax
 8048423:	0f b6 00             	movzbl (%eax),%eax
 8048426:	84 c0                	test   %al,%al
 8048428:	75 f2                	jne    804841c <strcat+0xe>
 804842a:	90                   	nop
 804842b:	8b 45 08             	mov    0x8(%ebp),%eax
 804842e:	8d 50 01             	lea    0x1(%eax),%edx
 8048431:	89 55 08             	mov    %edx,0x8(%ebp)
 8048434:	8b 55 0c             	mov    0xc(%ebp),%edx
 8048437:	8d 4a 01             	lea    0x1(%edx),%ecx
 804843a:	89 4d 0c             	mov    %ecx,0xc(%ebp)
 804843d:	0f b6 12             	movzbl (%edx),%edx
 8048440:	88 10                	mov    %dl,(%eax)
 8048442:	0f b6 00             	movzbl (%eax),%eax
 8048445:	84 c0                	test   %al,%al
 8048447:	75 e2                	jne    804842b <strcat+0x1d>
 8048449:	8b 45 fc             	mov    -0x4(%ebp),%eax
 804844c:	c9                   	leave  
 804844d:	c3                   	ret    

0804844e <strncat>:
 804844e:	55                   	push   %ebp
 804844f:	89 e5                	mov    %esp,%ebp
 8048451:	83 ec 10             	sub    $0x10,%esp
 8048454:	8b 45 08             	mov    0x8(%ebp),%eax
 8048457:	89 45 fc             	mov    %eax,-0x4(%ebp)
 804845a:	83 7d 10 00          	cmpl   $0x0,0x10(%ebp)
 804845e:	74 42                	je     80484a2 <strncat+0x54>
 8048460:	eb 04                	jmp    8048466 <strncat+0x18>
 8048462:	83 45 08 01          	addl   $0x1,0x8(%ebp)
 8048466:	8b 45 08             	mov    0x8(%ebp),%eax
 8048469:	0f b6 00             	movzbl (%eax),%eax
 804846c:	84 c0                	test   %al,%al
 804846e:	75 f2                	jne    8048462 <strncat+0x14>
 8048470:	eb 12                	jmp    8048484 <strncat+0x36>
 8048472:	83 6d 10 01          	subl   $0x1,0x10(%ebp)
 8048476:	83 7d 10 00          	cmpl   $0x0,0x10(%ebp)
 804847a:	75 08                	jne    8048484 <strncat+0x36>
 804847c:	8b 45 08             	mov    0x8(%ebp),%eax
 804847f:	c6 00 00             	movb   $0x0,(%eax)
 8048482:	eb 1e                	jmp    80484a2 <strncat+0x54>
 8048484:	8b 45 08             	mov    0x8(%ebp),%eax
 8048487:	8d 50 01             	lea    0x1(%eax),%edx
 804848a:	89 55 08             	mov    %edx,0x8(%ebp)
 804848d:	8b 55 0c             	mov    0xc(%ebp),%edx
 8048490:	8d 4a 01             	lea    0x1(%edx),%ecx
 8048493:	89 4d 0c             	mov    %ecx,0xc(%ebp)
 8048496:	0f b6 12             	movzbl (%edx),%edx
 8048499:	88 10                	mov    %dl,(%eax)
 804849b:	0f b6 00             	movzbl (%eax),%eax
 804849e:	84 c0                	test   %al,%al
 80484a0:	75 d0                	jne    8048472 <strncat+0x24>
 80484a2:	8b 45 fc             	mov    -0x4(%ebp),%eax
 80484a5:	c9                   	leave  
 80484a6:	c3                   	ret    

080484a7 <strcmp>:
 80484a7:	55                   	push   %ebp
 80484a8:	89 e5                	mov    %esp,%ebp
 80484aa:	53                   	push   %ebx
 80484ab:	8b 45 08             	mov    0x8(%ebp),%eax
 80484ae:	0f b6 00             	movzbl (%eax),%eax
 80484b1:	89 c1                	mov    %eax,%ecx
 80484b3:	8b 45 0c             	mov    0xc(%ebp),%eax
 80484b6:	8d 50 01             	lea    0x1(%eax),%edx
 80484b9:	89 55 0c             	mov    %edx,0xc(%ebp)
 80484bc:	0f b6 00             	movzbl (%eax),%eax
 80484bf:	29 c1                	sub    %eax,%ecx
 80484c1:	89 c8                	mov    %ecx,%eax
 80484c3:	89 c3                	mov    %eax,%ebx
 80484c5:	84 db                	test   %bl,%bl
 80484c7:	75 12                	jne    80484db <strcmp+0x34>
 80484c9:	8b 45 08             	mov    0x8(%ebp),%eax
 80484cc:	8d 50 01             	lea    0x1(%eax),%edx
 80484cf:	89 55 08             	mov    %edx,0x8(%ebp)
 80484d2:	0f b6 00             	movzbl (%eax),%eax
 80484d5:	84 c0                	test   %al,%al
 80484d7:	74 02                	je     80484db <strcmp+0x34>
 80484d9:	eb d0                	jmp    80484ab <strcmp+0x4>
 80484db:	0f be c3             	movsbl %bl,%eax
 80484de:	5b                   	pop    %ebx
 80484df:	5d                   	pop    %ebp
 80484e0:	c3                   	ret    

080484e1 <strncmp>:
 80484e1:	55                   	push   %ebp
 80484e2:	89 e5                	mov    %esp,%ebp
 80484e4:	53                   	push   %ebx
 80484e5:	bb 00 00 00 00       	mov    $0x0,%ebx
 80484ea:	eb 32                	jmp    804851e <strncmp+0x3d>
 80484ec:	8b 45 08             	mov    0x8(%ebp),%eax
 80484ef:	0f b6 00             	movzbl (%eax),%eax
 80484f2:	89 c1                	mov    %eax,%ecx
 80484f4:	8b 45 0c             	mov    0xc(%ebp),%eax
 80484f7:	8d 50 01             	lea    0x1(%eax),%edx
 80484fa:	89 55 0c             	mov    %edx,0xc(%ebp)
 80484fd:	0f b6 00             	movzbl (%eax),%eax
 8048500:	29 c1                	sub    %eax,%ecx
 8048502:	89 c8                	mov    %ecx,%eax
 8048504:	89 c3                	mov    %eax,%ebx
 8048506:	84 db                	test   %bl,%bl
 8048508:	75 1a                	jne    8048524 <strncmp+0x43>
 804850a:	8b 45 08             	mov    0x8(%ebp),%eax
 804850d:	8d 50 01             	lea    0x1(%eax),%edx
 8048510:	89 55 08             	mov    %edx,0x8(%ebp)
 8048513:	0f b6 00             	movzbl (%eax),%eax
 8048516:	84 c0                	test   %al,%al
 8048518:	74 0a                	je     8048524 <strncmp+0x43>
 804851a:	83 6d 10 01          	subl   $0x1,0x10(%ebp)
 804851e:	83 7d 10 00          	cmpl   $0x0,0x10(%ebp)
 8048522:	75 c8                	jne    80484ec <strncmp+0xb>
 8048524:	0f be c3             	movsbl %bl,%eax
 8048527:	5b                   	pop    %ebx
 8048528:	5d                   	pop    %ebp
 8048529:	c3                   	ret    

0804852a <strchr>:
 804852a:	55                   	push   %ebp
 804852b:	89 e5                	mov    %esp,%ebp
 804852d:	eb 15                	jmp    8048544 <strchr+0x1a>
 804852f:	8b 45 08             	mov    0x8(%ebp),%eax
 8048532:	0f b6 00             	movzbl (%eax),%eax
 8048535:	84 c0                	test   %al,%al
 8048537:	75 07                	jne    8048540 <strchr+0x16>
 8048539:	b8 00 00 00 00       	mov    $0x0,%eax
 804853e:	eb 14                	jmp    8048554 <strchr+0x2a>
 8048540:	83 45 08 01          	addl   $0x1,0x8(%ebp)
 8048544:	8b 45 08             	mov    0x8(%ebp),%eax
 8048547:	0f b6 00             	movzbl (%eax),%eax
 804854a:	8b 55 0c             	mov    0xc(%ebp),%edx
 804854d:	38 d0                	cmp    %dl,%al
 804854f:	75 de                	jne    804852f <strchr+0x5>
 8048551:	8b 45 08             	mov    0x8(%ebp),%eax
 8048554:	5d                   	pop    %ebp
 8048555:	c3                   	ret    

08048556 <strrchr>:
 8048556:	55                   	push   %ebp
 8048557:	89 e5                	mov    %esp,%ebp
 8048559:	83 ec 18             	sub    $0x18,%esp
 804855c:	83 ec 0c             	sub    $0xc,%esp
 804855f:	ff 75 08             	pushl  0x8(%ebp)
 8048562:	e8 32 00 00 00       	call   8048599 <strlen>
 8048567:	83 c4 10             	add    $0x10,%esp
 804856a:	89 c2                	mov    %eax,%edx
 804856c:	8b 45 08             	mov    0x8(%ebp),%eax
 804856f:	01 d0                	add    %edx,%eax
 8048571:	89 45 f4             	mov    %eax,-0xc(%ebp)
 8048574:	8b 45 f4             	mov    -0xc(%ebp),%eax
 8048577:	0f b6 00             	movzbl (%eax),%eax
 804857a:	8b 55 0c             	mov    0xc(%ebp),%edx
 804857d:	38 d0                	cmp    %dl,%al
 804857f:	75 05                	jne    8048586 <strrchr+0x30>
 8048581:	8b 45 f4             	mov    -0xc(%ebp),%eax
 8048584:	eb 11                	jmp    8048597 <strrchr+0x41>
 8048586:	83 6d f4 01          	subl   $0x1,-0xc(%ebp)
 804858a:	8b 45 f4             	mov    -0xc(%ebp),%eax
 804858d:	3b 45 08             	cmp    0x8(%ebp),%eax
 8048590:	73 e2                	jae    8048574 <strrchr+0x1e>
 8048592:	b8 00 00 00 00       	mov    $0x0,%eax
 8048597:	c9                   	leave  
 8048598:	c3                   	ret    

08048599 <strlen>:
 8048599:	55                   	push   %ebp
 804859a:	89 e5                	mov    %esp,%ebp
 804859c:	83 ec 10             	sub    $0x10,%esp
 804859f:	8b 45 08             	mov    0x8(%ebp),%eax
 80485a2:	89 45 fc             	mov    %eax,-0x4(%ebp)
 80485a5:	eb 04                	jmp    80485ab <strlen+0x12>
 80485a7:	83 45 fc 01          	addl   $0x1,-0x4(%ebp)
 80485ab:	8b 45 fc             	mov    -0x4(%ebp),%eax
 80485ae:	0f b6 00             	movzbl (%eax),%eax
 80485b1:	84 c0                	test   %al,%al
 80485b3:	75 f2                	jne    80485a7 <strlen+0xe>
 80485b5:	8b 55 fc             	mov    -0x4(%ebp),%edx
 80485b8:	8b 45 08             	mov    0x8(%ebp),%eax
 80485bb:	29 c2                	sub    %eax,%edx
 80485bd:	89 d0                	mov    %edx,%eax
 80485bf:	c9                   	leave  
 80485c0:	c3                   	ret    

080485c1 <strnlen>:
 80485c1:	55                   	push   %ebp
 80485c2:	89 e5                	mov    %esp,%ebp
 80485c4:	83 ec 10             	sub    $0x10,%esp
 80485c7:	8b 45 08             	mov    0x8(%ebp),%eax
 80485ca:	89 45 fc             	mov    %eax,-0x4(%ebp)
 80485cd:	eb 04                	jmp    80485d3 <strnlen+0x12>
 80485cf:	83 45 fc 01          	addl   $0x1,-0x4(%ebp)
 80485d3:	8b 45 0c             	mov    0xc(%ebp),%eax
 80485d6:	8d 50 ff             	lea    -0x1(%eax),%edx
 80485d9:	89 55 0c             	mov    %edx,0xc(%ebp)
 80485dc:	85 c0                	test   %eax,%eax
 80485de:	74 0a                	je     80485ea <strnlen+0x29>
 80485e0:	8b 45 fc             	mov    -0x4(%ebp),%eax
 80485e3:	0f b6 00             	movzbl (%eax),%eax
 80485e6:	84 c0                	test   %al,%al
 80485e8:	75 e5                	jne    80485cf <strnlen+0xe>
 80485ea:	8b 55 fc             	mov    -0x4(%ebp),%edx
 80485ed:	8b 45 08             	mov    0x8(%ebp),%eax
 80485f0:	29 c2                	sub    %eax,%edx
 80485f2:	89 d0                	mov    %edx,%eax
 80485f4:	c9                   	leave  
 80485f5:	c3                   	ret    

080485f6 <strspn>:
 80485f6:	55                   	push   %ebp
 80485f7:	89 e5                	mov    %esp,%ebp
 80485f9:	83 ec 10             	sub    $0x10,%esp
 80485fc:	c7 45 f4 00 00 00 00 	movl   $0x0,-0xc(%ebp)
 8048603:	8b 45 08             	mov    0x8(%ebp),%eax
 8048606:	89 45 fc             	mov    %eax,-0x4(%ebp)
 8048609:	eb 40                	jmp    804864b <strspn+0x55>
 804860b:	8b 45 0c             	mov    0xc(%ebp),%eax
 804860e:	89 45 f8             	mov    %eax,-0x8(%ebp)
 8048611:	eb 14                	jmp    8048627 <strspn+0x31>
 8048613:	8b 45 fc             	mov    -0x4(%ebp),%eax
 8048616:	0f b6 10             	movzbl (%eax),%edx
 8048619:	8b 45 f8             	mov    -0x8(%ebp),%eax
 804861c:	0f b6 00             	movzbl (%eax),%eax
 804861f:	38 c2                	cmp    %al,%dl
 8048621:	74 10                	je     8048633 <strspn+0x3d>
 8048623:	83 45 f8 01          	addl   $0x1,-0x8(%ebp)
 8048627:	8b 45 f8             	mov    -0x8(%ebp),%eax
 804862a:	0f b6 00             	movzbl (%eax),%eax
 804862d:	84 c0                	test   %al,%al
 804862f:	75 e2                	jne    8048613 <strspn+0x1d>
 8048631:	eb 01                	jmp    8048634 <strspn+0x3e>
 8048633:	90                   	nop
 8048634:	8b 45 f8             	mov    -0x8(%ebp),%eax
 8048637:	0f b6 00             	movzbl (%eax),%eax
 804863a:	84 c0                	test   %al,%al
 804863c:	75 05                	jne    8048643 <strspn+0x4d>
 804863e:	8b 45 f4             	mov    -0xc(%ebp),%eax
 8048641:	eb 15                	jmp    8048658 <strspn+0x62>
 8048643:	83 45 f4 01          	addl   $0x1,-0xc(%ebp)
 8048647:	83 45 fc 01          	addl   $0x1,-0x4(%ebp)
 804864b:	8b 45 fc             	mov    -0x4(%ebp),%eax
 804864e:	0f b6 00             	movzbl (%eax),%eax
 8048651:	84 c0                	test   %al,%al
 8048653:	75 b6                	jne    804860b <strspn+0x15>
 8048655:	8b 45 f4             	mov    -0xc(%ebp),%eax
 8048658:	c9                   	leave  
 8048659:	c3                   	ret    

0804865a <strpbrk>:
 804865a:	55                   	push   %ebp
 804865b:	89 e5                	mov    %esp,%ebp
 804865d:	83 ec 10             	sub    $0x10,%esp
 8048660:	8b 45 08             	mov    0x8(%ebp),%eax
 8048663:	89 45 fc             	mov    %eax,-0x4(%ebp)
 8048666:	eb 2f                	jmp    8048697 <strpbrk+0x3d>
 8048668:	8b 45 0c             	mov    0xc(%ebp),%eax
 804866b:	89 45 f8             	mov    %eax,-0x8(%ebp)
 804866e:	eb 19                	jmp    8048689 <strpbrk+0x2f>
 8048670:	8b 45 fc             	mov    -0x4(%ebp),%eax
 8048673:	0f b6 10             	movzbl (%eax),%edx
 8048676:	8b 45 f8             	mov    -0x8(%ebp),%eax
 8048679:	0f b6 00             	movzbl (%eax),%eax
 804867c:	38 c2                	cmp    %al,%dl
 804867e:	75 05                	jne    8048685 <strpbrk+0x2b>
 8048680:	8b 45 fc             	mov    -0x4(%ebp),%eax
 8048683:	eb 21                	jmp    80486a6 <strpbrk+0x4c>
 8048685:	83 45 f8 01          	addl   $0x1,-0x8(%ebp)
 8048689:	8b 45 f8             	mov    -0x8(%ebp),%eax
 804868c:	0f b6 00             	movzbl (%eax),%eax
 804868f:	84 c0                	test   %al,%al
 8048691:	75 dd                	jne    8048670 <strpbrk+0x16>
 8048693:	83 45 fc 01          	addl   $0x1,-0x4(%ebp)
 8048697:	8b 45 fc             	mov    -0x4(%ebp),%eax
 804869a:	0f b6 00             	movzbl (%eax),%eax
 804869d:	84 c0                	test   %al,%al
 804869f:	75 c7                	jne    8048668 <strpbrk+0xe>
 80486a1:	b8 00 00 00 00       	mov    $0x0,%eax
 80486a6:	c9                   	leave  
 80486a7:	c3                   	ret    

080486a8 <strtok>:
 80486a8:	55                   	push   %ebp
 80486a9:	89 e5                	mov    %esp,%ebp
 80486ab:	83 ec 10             	sub    $0x10,%esp
 80486ae:	83 7d 08 00          	cmpl   $0x0,0x8(%ebp)
 80486b2:	74 05                	je     80486b9 <strtok+0x11>
 80486b4:	8b 45 08             	mov    0x8(%ebp),%eax
 80486b7:	eb 05                	jmp    80486be <strtok+0x16>
 80486b9:	a1 00 c9 04 08       	mov    0x804c900,%eax
 80486be:	89 45 f8             	mov    %eax,-0x8(%ebp)
 80486c1:	83 7d f8 00          	cmpl   $0x0,-0x8(%ebp)
 80486c5:	75 07                	jne    80486ce <strtok+0x26>
 80486c7:	b8 00 00 00 00       	mov    $0x0,%eax
 80486cc:	eb 64                	jmp    8048732 <strtok+0x8a>
 80486ce:	ff 75 0c             	pushl  0xc(%ebp)
 80486d1:	ff 75 f8             	pushl  -0x8(%ebp)
 80486d4:	e8 1d ff ff ff       	call   80485f6 <strspn>
 80486d9:	83 c4 08             	add    $0x8,%esp
 80486dc:	01 45 f8             	add    %eax,-0x8(%ebp)
 80486df:	8b 45 f8             	mov    -0x8(%ebp),%eax
 80486e2:	0f b6 00             	movzbl (%eax),%eax
 80486e5:	84 c0                	test   %al,%al
 80486e7:	75 11                	jne    80486fa <strtok+0x52>
 80486e9:	c7 05 00 c9 04 08 00 	movl   $0x0,0x804c900
 80486f0:	00 00 00 
 80486f3:	b8 00 00 00 00       	mov    $0x0,%eax
 80486f8:	eb 38                	jmp    8048732 <strtok+0x8a>
 80486fa:	ff 75 0c             	pushl  0xc(%ebp)
 80486fd:	ff 75 f8             	pushl  -0x8(%ebp)
 8048700:	e8 55 ff ff ff       	call   804865a <strpbrk>
 8048705:	83 c4 08             	add    $0x8,%esp
 8048708:	89 45 fc             	mov    %eax,-0x4(%ebp)
 804870b:	83 7d fc 00          	cmpl   $0x0,-0x4(%ebp)
 804870f:	74 16                	je     8048727 <strtok+0x7f>
 8048711:	8b 45 fc             	mov    -0x4(%ebp),%eax
 8048714:	0f b6 00             	movzbl (%eax),%eax
 8048717:	84 c0                	test   %al,%al
 8048719:	74 0c                	je     8048727 <strtok+0x7f>
 804871b:	8b 45 fc             	mov    -0x4(%ebp),%eax
 804871e:	8d 50 01             	lea    0x1(%eax),%edx
 8048721:	89 55 fc             	mov    %edx,-0x4(%ebp)
 8048724:	c6 00 00             	movb   $0x0,(%eax)
 8048727:	8b 45 fc             	mov    -0x4(%ebp),%eax
 804872a:	a3 00 c9 04 08       	mov    %eax,0x804c900
 804872f:	8b 45 f8             	mov    -0x8(%ebp),%eax
 8048732:	c9                   	leave  
 8048733:	c3                   	ret    

08048734 <strsep>:
 8048734:	55                   	push   %ebp
 8048735:	89 e5                	mov    %esp,%ebp
 8048737:	83 ec 10             	sub    $0x10,%esp
 804873a:	8b 45 08             	mov    0x8(%ebp),%eax
 804873d:	8b 00                	mov    (%eax),%eax
 804873f:	89 45 f8             	mov    %eax,-0x8(%ebp)
 8048742:	83 7d f8 00          	cmpl   $0x0,-0x8(%ebp)
 8048746:	75 07                	jne    804874f <strsep+0x1b>
 8048748:	b8 00 00 00 00       	mov    $0x0,%eax
 804874d:	eb 2e                	jmp    804877d <strsep+0x49>
 804874f:	ff 75 0c             	pushl  0xc(%ebp)
 8048752:	ff 75 f8             	pushl  -0x8(%ebp)
 8048755:	e8 00 ff ff ff       	call   804865a <strpbrk>
 804875a:	83 c4 08             	add    $0x8,%esp
 804875d:	89 45 fc             	mov    %eax,-0x4(%ebp)
 8048760:	83 7d fc 00          	cmpl   $0x0,-0x4(%ebp)
 8048764:	74 0c                	je     8048772 <strsep+0x3e>
 8048766:	8b 45 fc             	mov    -0x4(%ebp),%eax
 8048769:	8d 50 01             	lea    0x1(%eax),%edx
 804876c:	89 55 fc             	mov    %edx,-0x4(%ebp)
 804876f:	c6 00 00             	movb   $0x0,(%eax)
 8048772:	8b 45 08             	mov    0x8(%ebp),%eax
 8048775:	8b 55 fc             	mov    -0x4(%ebp),%edx
 8048778:	89 10                	mov    %edx,(%eax)
 804877a:	8b 45 f8             	mov    -0x8(%ebp),%eax
 804877d:	c9                   	leave  
 804877e:	c3                   	ret    

0804877f <memset>:
 804877f:	55                   	push   %ebp
 8048780:	89 e5                	mov    %esp,%ebp
 8048782:	83 ec 10             	sub    $0x10,%esp
 8048785:	8b 45 08             	mov    0x8(%ebp),%eax
 8048788:	89 45 fc             	mov    %eax,-0x4(%ebp)
 804878b:	eb 0e                	jmp    804879b <memset+0x1c>
 804878d:	8b 45 fc             	mov    -0x4(%ebp),%eax
 8048790:	8d 50 01             	lea    0x1(%eax),%edx
 8048793:	89 55 fc             	mov    %edx,-0x4(%ebp)
 8048796:	8b 55 0c             	mov    0xc(%ebp),%edx
 8048799:	88 10                	mov    %dl,(%eax)
 804879b:	8b 45 10             	mov    0x10(%ebp),%eax
 804879e:	8d 50 ff             	lea    -0x1(%eax),%edx
 80487a1:	89 55 10             	mov    %edx,0x10(%ebp)
 80487a4:	85 c0                	test   %eax,%eax
 80487a6:	75 e5                	jne    804878d <memset+0xe>
 80487a8:	8b 45 08             	mov    0x8(%ebp),%eax
 80487ab:	c9                   	leave  
 80487ac:	c3                   	ret    

080487ad <bcopy>:
 80487ad:	55                   	push   %ebp
 80487ae:	89 e5                	mov    %esp,%ebp
 80487b0:	83 ec 10             	sub    $0x10,%esp
 80487b3:	8b 45 0c             	mov    0xc(%ebp),%eax
 80487b6:	89 45 fc             	mov    %eax,-0x4(%ebp)
 80487b9:	8b 45 08             	mov    0x8(%ebp),%eax
 80487bc:	89 45 f8             	mov    %eax,-0x8(%ebp)
 80487bf:	eb 17                	jmp    80487d8 <bcopy+0x2b>
 80487c1:	8b 45 fc             	mov    -0x4(%ebp),%eax
 80487c4:	8d 50 01             	lea    0x1(%eax),%edx
 80487c7:	89 55 fc             	mov    %edx,-0x4(%ebp)
 80487ca:	8b 55 f8             	mov    -0x8(%ebp),%edx
 80487cd:	8d 4a 01             	lea    0x1(%edx),%ecx
 80487d0:	89 4d f8             	mov    %ecx,-0x8(%ebp)
 80487d3:	0f b6 12             	movzbl (%edx),%edx
 80487d6:	88 10                	mov    %dl,(%eax)
 80487d8:	8b 45 10             	mov    0x10(%ebp),%eax
 80487db:	8d 50 ff             	lea    -0x1(%eax),%edx
 80487de:	89 55 10             	mov    %edx,0x10(%ebp)
 80487e1:	85 c0                	test   %eax,%eax
 80487e3:	75 dc                	jne    80487c1 <bcopy+0x14>
 80487e5:	90                   	nop
 80487e6:	c9                   	leave  
 80487e7:	c3                   	ret    

080487e8 <memcpy>:
 80487e8:	55                   	push   %ebp
 80487e9:	89 e5                	mov    %esp,%ebp
 80487eb:	83 ec 10             	sub    $0x10,%esp
 80487ee:	8b 45 08             	mov    0x8(%ebp),%eax
 80487f1:	89 45 fc             	mov    %eax,-0x4(%ebp)
 80487f4:	8b 45 0c             	mov    0xc(%ebp),%eax
 80487f7:	89 45 f8             	mov    %eax,-0x8(%ebp)
 80487fa:	eb 17                	jmp    8048813 <memcpy+0x2b>
 80487fc:	8b 45 fc             	mov    -0x4(%ebp),%eax
 80487ff:	8d 50 01             	lea    0x1(%eax),%edx
 8048802:	89 55 fc             	mov    %edx,-0x4(%ebp)
 8048805:	8b 55 f8             	mov    -0x8(%ebp),%edx
 8048808:	8d 4a 01             	lea    0x1(%edx),%ecx
 804880b:	89 4d f8             	mov    %ecx,-0x8(%ebp)
 804880e:	0f b6 12             	movzbl (%edx),%edx
 8048811:	88 10                	mov    %dl,(%eax)
 8048813:	8b 45 10             	mov    0x10(%ebp),%eax
 8048816:	8d 50 ff             	lea    -0x1(%eax),%edx
 8048819:	89 55 10             	mov    %edx,0x10(%ebp)
 804881c:	85 c0                	test   %eax,%eax
 804881e:	75 dc                	jne    80487fc <memcpy+0x14>
 8048820:	8b 45 08             	mov    0x8(%ebp),%eax
 8048823:	c9                   	leave  
 8048824:	c3                   	ret    

08048825 <memmove>:
 8048825:	55                   	push   %ebp
 8048826:	89 e5                	mov    %esp,%ebp
 8048828:	83 ec 10             	sub    $0x10,%esp
 804882b:	8b 45 08             	mov    0x8(%ebp),%eax
 804882e:	3b 45 0c             	cmp    0xc(%ebp),%eax
 8048831:	77 34                	ja     8048867 <memmove+0x42>
 8048833:	8b 45 08             	mov    0x8(%ebp),%eax
 8048836:	89 45 fc             	mov    %eax,-0x4(%ebp)
 8048839:	8b 45 0c             	mov    0xc(%ebp),%eax
 804883c:	89 45 f8             	mov    %eax,-0x8(%ebp)
 804883f:	eb 17                	jmp    8048858 <memmove+0x33>
 8048841:	8b 45 fc             	mov    -0x4(%ebp),%eax
 8048844:	8d 50 01             	lea    0x1(%eax),%edx
 8048847:	89 55 fc             	mov    %edx,-0x4(%ebp)
 804884a:	8b 55 f8             	mov    -0x8(%ebp),%edx
 804884d:	8d 4a 01             	lea    0x1(%edx),%ecx
 8048850:	89 4d f8             	mov    %ecx,-0x8(%ebp)
 8048853:	0f b6 12             	movzbl (%edx),%edx
 8048856:	88 10                	mov    %dl,(%eax)
 8048858:	8b 45 10             	mov    0x10(%ebp),%eax
 804885b:	8d 50 ff             	lea    -0x1(%eax),%edx
 804885e:	89 55 10             	mov    %edx,0x10(%ebp)
 8048861:	85 c0                	test   %eax,%eax
 8048863:	75 dc                	jne    8048841 <memmove+0x1c>
 8048865:	eb 38                	jmp    804889f <memmove+0x7a>
 8048867:	8b 55 10             	mov    0x10(%ebp),%edx
 804886a:	8b 45 08             	mov    0x8(%ebp),%eax
 804886d:	01 d0                	add    %edx,%eax
 804886f:	89 45 fc             	mov    %eax,-0x4(%ebp)
 8048872:	8b 55 10             	mov    0x10(%ebp),%edx
 8048875:	8b 45 0c             	mov    0xc(%ebp),%eax
 8048878:	01 d0                	add    %edx,%eax
 804887a:	89 45 f8             	mov    %eax,-0x8(%ebp)
 804887d:	eb 13                	jmp    8048892 <memmove+0x6d>
 804887f:	83 6d fc 01          	subl   $0x1,-0x4(%ebp)
 8048883:	83 6d f8 01          	subl   $0x1,-0x8(%ebp)
 8048887:	8b 45 f8             	mov    -0x8(%ebp),%eax
 804888a:	0f b6 10             	movzbl (%eax),%edx
 804888d:	8b 45 fc             	mov    -0x4(%ebp),%eax
 8048890:	88 10                	mov    %dl,(%eax)
 8048892:	8b 45 10             	mov    0x10(%ebp),%eax
 8048895:	8d 50 ff             	lea    -0x1(%eax),%edx
 8048898:	89 55 10             	mov    %edx,0x10(%ebp)
 804889b:	85 c0                	test   %eax,%eax
 804889d:	75 e0                	jne    804887f <memmove+0x5a>
 804889f:	8b 45 08             	mov    0x8(%ebp),%eax
 80488a2:	c9                   	leave  
 80488a3:	c3                   	ret    

080488a4 <memcmp>:
 80488a4:	55                   	push   %ebp
 80488a5:	89 e5                	mov    %esp,%ebp
 80488a7:	83 ec 10             	sub    $0x10,%esp
 80488aa:	c7 45 f4 00 00 00 00 	movl   $0x0,-0xc(%ebp)
 80488b1:	8b 45 08             	mov    0x8(%ebp),%eax
 80488b4:	89 45 fc             	mov    %eax,-0x4(%ebp)
 80488b7:	8b 45 0c             	mov    0xc(%ebp),%eax
 80488ba:	89 45 f8             	mov    %eax,-0x8(%ebp)
 80488bd:	eb 2b                	jmp    80488ea <memcmp+0x46>
 80488bf:	8b 45 fc             	mov    -0x4(%ebp),%eax
 80488c2:	0f b6 00             	movzbl (%eax),%eax
 80488c5:	0f b6 d0             	movzbl %al,%edx
 80488c8:	8b 45 f8             	mov    -0x8(%ebp),%eax
 80488cb:	0f b6 00             	movzbl (%eax),%eax
 80488ce:	0f b6 c0             	movzbl %al,%eax
 80488d1:	29 c2                	sub    %eax,%edx
 80488d3:	89 d0                	mov    %edx,%eax
 80488d5:	89 45 f4             	mov    %eax,-0xc(%ebp)
 80488d8:	83 7d f4 00          	cmpl   $0x0,-0xc(%ebp)
 80488dc:	75 14                	jne    80488f2 <memcmp+0x4e>
 80488de:	83 45 fc 01          	addl   $0x1,-0x4(%ebp)
 80488e2:	83 45 f8 01          	addl   $0x1,-0x8(%ebp)
 80488e6:	83 6d 10 01          	subl   $0x1,0x10(%ebp)
 80488ea:	83 7d 10 00          	cmpl   $0x0,0x10(%ebp)
 80488ee:	7f cf                	jg     80488bf <memcmp+0x1b>
 80488f0:	eb 01                	jmp    80488f3 <memcmp+0x4f>
 80488f2:	90                   	nop
 80488f3:	8b 45 f4             	mov    -0xc(%ebp),%eax
 80488f6:	c9                   	leave  
 80488f7:	c3                   	ret    

080488f8 <memscan>:
 80488f8:	55                   	push   %ebp
 80488f9:	89 e5                	mov    %esp,%ebp
 80488fb:	83 ec 10             	sub    $0x10,%esp
 80488fe:	8b 45 08             	mov    0x8(%ebp),%eax
 8048901:	89 45 fc             	mov    %eax,-0x4(%ebp)
 8048904:	eb 1b                	jmp    8048921 <memscan+0x29>
 8048906:	8b 45 fc             	mov    -0x4(%ebp),%eax
 8048909:	0f b6 00             	movzbl (%eax),%eax
 804890c:	0f b6 c0             	movzbl %al,%eax
 804890f:	3b 45 0c             	cmp    0xc(%ebp),%eax
 8048912:	75 05                	jne    8048919 <memscan+0x21>
 8048914:	8b 45 fc             	mov    -0x4(%ebp),%eax
 8048917:	eb 11                	jmp    804892a <memscan+0x32>
 8048919:	83 45 fc 01          	addl   $0x1,-0x4(%ebp)
 804891d:	83 6d 10 01          	subl   $0x1,0x10(%ebp)
 8048921:	83 7d 10 00          	cmpl   $0x0,0x10(%ebp)
 8048925:	75 df                	jne    8048906 <memscan+0xe>
 8048927:	8b 45 fc             	mov    -0x4(%ebp),%eax
 804892a:	c9                   	leave  
 804892b:	c3                   	ret    

0804892c <strstr>:
 804892c:	55                   	push   %ebp
 804892d:	89 e5                	mov    %esp,%ebp
 804892f:	83 ec 10             	sub    $0x10,%esp
 8048932:	ff 75 0c             	pushl  0xc(%ebp)
 8048935:	e8 5f fc ff ff       	call   8048599 <strlen>
 804893a:	83 c4 04             	add    $0x4,%esp
 804893d:	89 45 f8             	mov    %eax,-0x8(%ebp)
 8048940:	83 7d f8 00          	cmpl   $0x0,-0x8(%ebp)
 8048944:	75 05                	jne    804894b <strstr+0x1f>
 8048946:	8b 45 08             	mov    0x8(%ebp),%eax
 8048949:	eb 3f                	jmp    804898a <strstr+0x5e>
 804894b:	ff 75 08             	pushl  0x8(%ebp)
 804894e:	e8 46 fc ff ff       	call   8048599 <strlen>
 8048953:	83 c4 04             	add    $0x4,%esp
 8048956:	89 45 fc             	mov    %eax,-0x4(%ebp)
 8048959:	eb 22                	jmp    804897d <strstr+0x51>
 804895b:	83 6d fc 01          	subl   $0x1,-0x4(%ebp)
 804895f:	ff 75 f8             	pushl  -0x8(%ebp)
 8048962:	ff 75 0c             	pushl  0xc(%ebp)
 8048965:	ff 75 08             	pushl  0x8(%ebp)
 8048968:	e8 37 ff ff ff       	call   80488a4 <memcmp>
 804896d:	83 c4 0c             	add    $0xc,%esp
 8048970:	85 c0                	test   %eax,%eax
 8048972:	75 05                	jne    8048979 <strstr+0x4d>
 8048974:	8b 45 08             	mov    0x8(%ebp),%eax
 8048977:	eb 11                	jmp    804898a <strstr+0x5e>
 8048979:	83 45 08 01          	addl   $0x1,0x8(%ebp)
 804897d:	8b 45 fc             	mov    -0x4(%ebp),%eax
 8048980:	3b 45 f8             	cmp    -0x8(%ebp),%eax
 8048983:	7d d6                	jge    804895b <strstr+0x2f>
 8048985:	b8 00 00 00 00       	mov    $0x0,%eax
 804898a:	c9                   	leave  
 804898b:	c3                   	ret    

0804898c <memchr>:
 804898c:	55                   	push   %ebp
 804898d:	89 e5                	mov    %esp,%ebp
 804898f:	83 ec 10             	sub    $0x10,%esp
 8048992:	8b 45 08             	mov    0x8(%ebp),%eax
 8048995:	89 45 fc             	mov    %eax,-0x4(%ebp)
 8048998:	eb 21                	jmp    80489bb <memchr+0x2f>
 804899a:	8b 45 0c             	mov    0xc(%ebp),%eax
 804899d:	0f b6 c8             	movzbl %al,%ecx
 80489a0:	8b 45 fc             	mov    -0x4(%ebp),%eax
 80489a3:	8d 50 01             	lea    0x1(%eax),%edx
 80489a6:	89 55 fc             	mov    %edx,-0x4(%ebp)
 80489a9:	0f b6 00             	movzbl (%eax),%eax
 80489ac:	0f b6 c0             	movzbl %al,%eax
 80489af:	39 c1                	cmp    %eax,%ecx
 80489b1:	75 08                	jne    80489bb <memchr+0x2f>
 80489b3:	8b 45 fc             	mov    -0x4(%ebp),%eax
 80489b6:	83 e8 01             	sub    $0x1,%eax
 80489b9:	eb 12                	jmp    80489cd <memchr+0x41>
 80489bb:	8b 45 10             	mov    0x10(%ebp),%eax
 80489be:	8d 50 ff             	lea    -0x1(%eax),%edx
 80489c1:	89 55 10             	mov    %edx,0x10(%ebp)
 80489c4:	85 c0                	test   %eax,%eax
 80489c6:	75 d2                	jne    804899a <memchr+0xe>
 80489c8:	b8 00 00 00 00       	mov    $0x0,%eax
 80489cd:	c9                   	leave  
 80489ce:	c3                   	ret    

080489cf <__toupper>:
 80489cf:	55                   	push   %ebp
 80489d0:	89 e5                	mov    %esp,%ebp
 80489d2:	83 ec 04             	sub    $0x4,%esp
 80489d5:	8b 45 08             	mov    0x8(%ebp),%eax
 80489d8:	88 45 fc             	mov    %al,-0x4(%ebp)
 80489db:	0f b6 45 fc          	movzbl -0x4(%ebp),%eax
 80489df:	0f b6 80 00 c0 04 08 	movzbl 0x804c000(%eax),%eax
 80489e6:	0f b6 c0             	movzbl %al,%eax
 80489e9:	83 e0 02             	and    $0x2,%eax
 80489ec:	85 c0                	test   %eax,%eax
 80489ee:	74 04                	je     80489f4 <__toupper+0x25>
 80489f0:	80 6d fc 20          	subb   $0x20,-0x4(%ebp)
 80489f4:	0f b6 45 fc          	movzbl -0x4(%ebp),%eax
 80489f8:	c9                   	leave  
 80489f9:	c3                   	ret    

080489fa <ilog2>:
 80489fa:	55                   	push   %ebp
 80489fb:	89 e5                	mov    %esp,%ebp
 80489fd:	83 ec 10             	sub    $0x10,%esp
 8048a00:	c7 45 fc 00 00 00 00 	movl   $0x0,-0x4(%ebp)
 8048a07:	eb 04                	jmp    8048a0d <ilog2+0x13>
 8048a09:	83 45 fc 01          	addl   $0x1,-0x4(%ebp)
 8048a0d:	8b 45 fc             	mov    -0x4(%ebp),%eax
 8048a10:	ba 01 00 00 00       	mov    $0x1,%edx
 8048a15:	89 c1                	mov    %eax,%ecx
 8048a17:	d3 e2                	shl    %cl,%edx
 8048a19:	89 d0                	mov    %edx,%eax
 8048a1b:	3b 45 08             	cmp    0x8(%ebp),%eax
 8048a1e:	72 e9                	jb     8048a09 <ilog2+0xf>
 8048a20:	8b 45 fc             	mov    -0x4(%ebp),%eax
 8048a23:	c9                   	leave  
 8048a24:	c3                   	ret    

08048a25 <is_power_of_2>:
 8048a25:	55                   	push   %ebp
 8048a26:	89 e5                	mov    %esp,%ebp
 8048a28:	83 7d 08 00          	cmpl   $0x0,0x8(%ebp)
 8048a2c:	74 14                	je     8048a42 <is_power_of_2+0x1d>
 8048a2e:	8b 45 08             	mov    0x8(%ebp),%eax
 8048a31:	83 e8 01             	sub    $0x1,%eax
 8048a34:	23 45 08             	and    0x8(%ebp),%eax
 8048a37:	85 c0                	test   %eax,%eax
 8048a39:	75 07                	jne    8048a42 <is_power_of_2+0x1d>
 8048a3b:	b8 01 00 00 00       	mov    $0x1,%eax
 8048a40:	eb 05                	jmp    8048a47 <is_power_of_2+0x22>
 8048a42:	b8 00 00 00 00       	mov    $0x0,%eax
 8048a47:	5d                   	pop    %ebp
 8048a48:	c3                   	ret    

08048a49 <simple_strtoul>:
 8048a49:	55                   	push   %ebp
 8048a4a:	89 e5                	mov    %esp,%ebp
 8048a4c:	83 ec 10             	sub    $0x10,%esp
 8048a4f:	c7 45 fc 00 00 00 00 	movl   $0x0,-0x4(%ebp)
 8048a56:	83 7d 10 00          	cmpl   $0x0,0x10(%ebp)
 8048a5a:	75 60                	jne    8048abc <simple_strtoul+0x73>
 8048a5c:	c7 45 10 0a 00 00 00 	movl   $0xa,0x10(%ebp)
 8048a63:	8b 45 08             	mov    0x8(%ebp),%eax
 8048a66:	0f b6 00             	movzbl (%eax),%eax
 8048a69:	3c 30                	cmp    $0x30,%al
 8048a6b:	0f 85 8f 00 00 00    	jne    8048b00 <simple_strtoul+0xb7>
 8048a71:	c7 45 10 08 00 00 00 	movl   $0x8,0x10(%ebp)
 8048a78:	83 45 08 01          	addl   $0x1,0x8(%ebp)
 8048a7c:	8b 45 08             	mov    0x8(%ebp),%eax
 8048a7f:	0f b6 00             	movzbl (%eax),%eax
 8048a82:	0f b6 c0             	movzbl %al,%eax
 8048a85:	50                   	push   %eax
 8048a86:	e8 44 ff ff ff       	call   80489cf <__toupper>
 8048a8b:	83 c4 04             	add    $0x4,%esp
 8048a8e:	3c 58                	cmp    $0x58,%al
 8048a90:	75 6e                	jne    8048b00 <simple_strtoul+0xb7>
 8048a92:	8b 45 08             	mov    0x8(%ebp),%eax
 8048a95:	83 c0 01             	add    $0x1,%eax
 8048a98:	0f b6 00             	movzbl (%eax),%eax
 8048a9b:	0f b6 c0             	movzbl %al,%eax
 8048a9e:	0f b6 80 00 c0 04 08 	movzbl 0x804c000(%eax),%eax
 8048aa5:	0f b6 c0             	movzbl %al,%eax
 8048aa8:	83 e0 44             	and    $0x44,%eax
 8048aab:	85 c0                	test   %eax,%eax
 8048aad:	74 51                	je     8048b00 <simple_strtoul+0xb7>
 8048aaf:	83 45 08 01          	addl   $0x1,0x8(%ebp)
 8048ab3:	c7 45 10 10 00 00 00 	movl   $0x10,0x10(%ebp)
 8048aba:	eb 44                	jmp    8048b00 <simple_strtoul+0xb7>
 8048abc:	83 7d 10 10          	cmpl   $0x10,0x10(%ebp)
 8048ac0:	75 3e                	jne    8048b00 <simple_strtoul+0xb7>
 8048ac2:	8b 45 08             	mov    0x8(%ebp),%eax
 8048ac5:	0f b6 00             	movzbl (%eax),%eax
 8048ac8:	3c 30                	cmp    $0x30,%al
 8048aca:	75 34                	jne    8048b00 <simple_strtoul+0xb7>
 8048acc:	8b 45 08             	mov    0x8(%ebp),%eax
 8048acf:	83 c0 01             	add    $0x1,%eax
 8048ad2:	0f b6 00             	movzbl (%eax),%eax
 8048ad5:	0f b6 c0             	movzbl %al,%eax
 8048ad8:	50                   	push   %eax
 8048ad9:	e8 f1 fe ff ff       	call   80489cf <__toupper>
 8048ade:	83 c4 04             	add    $0x4,%esp
 8048ae1:	3c 58                	cmp    $0x58,%al
 8048ae3:	75 1b                	jne    8048b00 <simple_strtoul+0xb7>
 8048ae5:	83 45 08 02          	addl   $0x2,0x8(%ebp)
 8048ae9:	eb 15                	jmp    8048b00 <simple_strtoul+0xb7>
 8048aeb:	8b 45 fc             	mov    -0x4(%ebp),%eax
 8048aee:	0f af 45 10          	imul   0x10(%ebp),%eax
 8048af2:	89 c2                	mov    %eax,%edx
 8048af4:	8b 45 f8             	mov    -0x8(%ebp),%eax
 8048af7:	01 d0                	add    %edx,%eax
 8048af9:	89 45 fc             	mov    %eax,-0x4(%ebp)
 8048afc:	83 45 08 01          	addl   $0x1,0x8(%ebp)
 8048b00:	8b 45 08             	mov    0x8(%ebp),%eax
 8048b03:	0f b6 00             	movzbl (%eax),%eax
 8048b06:	0f b6 c0             	movzbl %al,%eax
 8048b09:	0f b6 80 00 c0 04 08 	movzbl 0x804c000(%eax),%eax
 8048b10:	0f b6 c0             	movzbl %al,%eax
 8048b13:	83 e0 44             	and    $0x44,%eax
 8048b16:	85 c0                	test   %eax,%eax
 8048b18:	74 4b                	je     8048b65 <simple_strtoul+0x11c>
 8048b1a:	8b 45 08             	mov    0x8(%ebp),%eax
 8048b1d:	0f b6 00             	movzbl (%eax),%eax
 8048b20:	0f b6 c0             	movzbl %al,%eax
 8048b23:	0f b6 80 00 c0 04 08 	movzbl 0x804c000(%eax),%eax
 8048b2a:	0f b6 c0             	movzbl %al,%eax
 8048b2d:	83 e0 04             	and    $0x4,%eax
 8048b30:	85 c0                	test   %eax,%eax
 8048b32:	74 0e                	je     8048b42 <simple_strtoul+0xf9>
 8048b34:	8b 45 08             	mov    0x8(%ebp),%eax
 8048b37:	0f b6 00             	movzbl (%eax),%eax
 8048b3a:	0f be c0             	movsbl %al,%eax
 8048b3d:	83 e8 30             	sub    $0x30,%eax
 8048b40:	eb 18                	jmp    8048b5a <simple_strtoul+0x111>
 8048b42:	8b 45 08             	mov    0x8(%ebp),%eax
 8048b45:	0f b6 00             	movzbl (%eax),%eax
 8048b48:	0f b6 c0             	movzbl %al,%eax
 8048b4b:	50                   	push   %eax
 8048b4c:	e8 7e fe ff ff       	call   80489cf <__toupper>
 8048b51:	83 c4 04             	add    $0x4,%esp
 8048b54:	0f b6 c0             	movzbl %al,%eax
 8048b57:	83 e8 37             	sub    $0x37,%eax
 8048b5a:	89 45 f8             	mov    %eax,-0x8(%ebp)
 8048b5d:	8b 45 f8             	mov    -0x8(%ebp),%eax
 8048b60:	3b 45 10             	cmp    0x10(%ebp),%eax
 8048b63:	72 86                	jb     8048aeb <simple_strtoul+0xa2>
 8048b65:	83 7d 0c 00          	cmpl   $0x0,0xc(%ebp)
 8048b69:	74 08                	je     8048b73 <simple_strtoul+0x12a>
 8048b6b:	8b 45 0c             	mov    0xc(%ebp),%eax
 8048b6e:	8b 55 08             	mov    0x8(%ebp),%edx
 8048b71:	89 10                	mov    %edx,(%eax)
 8048b73:	8b 45 fc             	mov    -0x4(%ebp),%eax
 8048b76:	c9                   	leave  
 8048b77:	c3                   	ret    

08048b78 <simple_strtol>:
 8048b78:	55                   	push   %ebp
 8048b79:	89 e5                	mov    %esp,%ebp
 8048b7b:	8b 45 08             	mov    0x8(%ebp),%eax
 8048b7e:	0f b6 00             	movzbl (%eax),%eax
 8048b81:	3c 2d                	cmp    $0x2d,%al
 8048b83:	75 19                	jne    8048b9e <simple_strtol+0x26>
 8048b85:	8b 45 08             	mov    0x8(%ebp),%eax
 8048b88:	83 c0 01             	add    $0x1,%eax
 8048b8b:	ff 75 10             	pushl  0x10(%ebp)
 8048b8e:	ff 75 0c             	pushl  0xc(%ebp)
 8048b91:	50                   	push   %eax
 8048b92:	e8 b2 fe ff ff       	call   8048a49 <simple_strtoul>
 8048b97:	83 c4 0c             	add    $0xc,%esp
 8048b9a:	f7 d8                	neg    %eax
 8048b9c:	eb 11                	jmp    8048baf <simple_strtol+0x37>
 8048b9e:	ff 75 10             	pushl  0x10(%ebp)
 8048ba1:	ff 75 0c             	pushl  0xc(%ebp)
 8048ba4:	ff 75 08             	pushl  0x8(%ebp)
 8048ba7:	e8 9d fe ff ff       	call   8048a49 <simple_strtoul>
 8048bac:	83 c4 0c             	add    $0xc,%esp
 8048baf:	c9                   	leave  
 8048bb0:	c3                   	ret    

08048bb1 <simple_strtoull>:
 8048bb1:	55                   	push   %ebp
 8048bb2:	89 e5                	mov    %esp,%ebp
 8048bb4:	53                   	push   %ebx
 8048bb5:	83 ec 14             	sub    $0x14,%esp
 8048bb8:	c7 45 f0 00 00 00 00 	movl   $0x0,-0x10(%ebp)
 8048bbf:	c7 45 f4 00 00 00 00 	movl   $0x0,-0xc(%ebp)
 8048bc6:	83 7d 10 00          	cmpl   $0x0,0x10(%ebp)
 8048bca:	75 64                	jne    8048c30 <simple_strtoull+0x7f>
 8048bcc:	c7 45 10 0a 00 00 00 	movl   $0xa,0x10(%ebp)
 8048bd3:	8b 45 08             	mov    0x8(%ebp),%eax
 8048bd6:	0f b6 00             	movzbl (%eax),%eax
 8048bd9:	3c 30                	cmp    $0x30,%al
 8048bdb:	0f 85 b1 00 00 00    	jne    8048c92 <simple_strtoull+0xe1>
 8048be1:	c7 45 10 08 00 00 00 	movl   $0x8,0x10(%ebp)
 8048be8:	83 45 08 01          	addl   $0x1,0x8(%ebp)
 8048bec:	8b 45 08             	mov    0x8(%ebp),%eax
 8048bef:	0f b6 00             	movzbl (%eax),%eax
 8048bf2:	0f b6 c0             	movzbl %al,%eax
 8048bf5:	50                   	push   %eax
 8048bf6:	e8 d4 fd ff ff       	call   80489cf <__toupper>
 8048bfb:	83 c4 04             	add    $0x4,%esp
 8048bfe:	3c 58                	cmp    $0x58,%al
 8048c00:	0f 85 8c 00 00 00    	jne    8048c92 <simple_strtoull+0xe1>
 8048c06:	8b 45 08             	mov    0x8(%ebp),%eax
 8048c09:	83 c0 01             	add    $0x1,%eax
 8048c0c:	0f b6 00             	movzbl (%eax),%eax
 8048c0f:	0f b6 c0             	movzbl %al,%eax
 8048c12:	0f b6 80 00 c0 04 08 	movzbl 0x804c000(%eax),%eax
 8048c19:	0f b6 c0             	movzbl %al,%eax
 8048c1c:	83 e0 44             	and    $0x44,%eax
 8048c1f:	85 c0                	test   %eax,%eax
 8048c21:	74 6f                	je     8048c92 <simple_strtoull+0xe1>
 8048c23:	83 45 08 01          	addl   $0x1,0x8(%ebp)
 8048c27:	c7 45 10 10 00 00 00 	movl   $0x10,0x10(%ebp)
 8048c2e:	eb 62                	jmp    8048c92 <simple_strtoull+0xe1>
 8048c30:	83 7d 10 10          	cmpl   $0x10,0x10(%ebp)
 8048c34:	75 5c                	jne    8048c92 <simple_strtoull+0xe1>
 8048c36:	8b 45 08             	mov    0x8(%ebp),%eax
 8048c39:	0f b6 00             	movzbl (%eax),%eax
 8048c3c:	3c 30                	cmp    $0x30,%al
 8048c3e:	75 52                	jne    8048c92 <simple_strtoull+0xe1>
 8048c40:	8b 45 08             	mov    0x8(%ebp),%eax
 8048c43:	83 c0 01             	add    $0x1,%eax
 8048c46:	0f b6 00             	movzbl (%eax),%eax
 8048c49:	0f b6 c0             	movzbl %al,%eax
 8048c4c:	50                   	push   %eax
 8048c4d:	e8 7d fd ff ff       	call   80489cf <__toupper>
 8048c52:	83 c4 04             	add    $0x4,%esp
 8048c55:	3c 58                	cmp    $0x58,%al
 8048c57:	75 39                	jne    8048c92 <simple_strtoull+0xe1>
 8048c59:	83 45 08 02          	addl   $0x2,0x8(%ebp)
 8048c5d:	eb 33                	jmp    8048c92 <simple_strtoull+0xe1>
 8048c5f:	8b 45 10             	mov    0x10(%ebp),%eax
 8048c62:	ba 00 00 00 00       	mov    $0x0,%edx
 8048c67:	8b 4d f0             	mov    -0x10(%ebp),%ecx
 8048c6a:	89 cb                	mov    %ecx,%ebx
 8048c6c:	0f af da             	imul   %edx,%ebx
 8048c6f:	8b 4d f4             	mov    -0xc(%ebp),%ecx
 8048c72:	0f af c8             	imul   %eax,%ecx
 8048c75:	01 d9                	add    %ebx,%ecx
 8048c77:	f7 65 f0             	mull   -0x10(%ebp)
 8048c7a:	01 d1                	add    %edx,%ecx
 8048c7c:	89 ca                	mov    %ecx,%edx
 8048c7e:	8b 4d e8             	mov    -0x18(%ebp),%ecx
 8048c81:	8b 5d ec             	mov    -0x14(%ebp),%ebx
 8048c84:	01 c8                	add    %ecx,%eax
 8048c86:	11 da                	adc    %ebx,%edx
 8048c88:	89 45 f0             	mov    %eax,-0x10(%ebp)
 8048c8b:	89 55 f4             	mov    %edx,-0xc(%ebp)
 8048c8e:	83 45 08 01          	addl   $0x1,0x8(%ebp)
 8048c92:	8b 45 08             	mov    0x8(%ebp),%eax
 8048c95:	0f b6 00             	movzbl (%eax),%eax
 8048c98:	0f b6 c0             	movzbl %al,%eax
 8048c9b:	0f b6 80 00 c0 04 08 	movzbl 0x804c000(%eax),%eax
 8048ca2:	0f b6 c0             	movzbl %al,%eax
 8048ca5:	83 e0 44             	and    $0x44,%eax
 8048ca8:	85 c0                	test   %eax,%eax
 8048caa:	0f 84 8e 00 00 00    	je     8048d3e <simple_strtoull+0x18d>
 8048cb0:	8b 45 08             	mov    0x8(%ebp),%eax
 8048cb3:	0f b6 00             	movzbl (%eax),%eax
 8048cb6:	0f b6 c0             	movzbl %al,%eax
 8048cb9:	0f b6 80 00 c0 04 08 	movzbl 0x804c000(%eax),%eax
 8048cc0:	0f b6 c0             	movzbl %al,%eax
 8048cc3:	83 e0 04             	and    $0x4,%eax
 8048cc6:	85 c0                	test   %eax,%eax
 8048cc8:	74 0e                	je     8048cd8 <simple_strtoull+0x127>
 8048cca:	8b 45 08             	mov    0x8(%ebp),%eax
 8048ccd:	0f b6 00             	movzbl (%eax),%eax
 8048cd0:	0f be c0             	movsbl %al,%eax
 8048cd3:	83 e8 30             	sub    $0x30,%eax
 8048cd6:	eb 40                	jmp    8048d18 <simple_strtoull+0x167>
 8048cd8:	8b 45 08             	mov    0x8(%ebp),%eax
 8048cdb:	0f b6 00             	movzbl (%eax),%eax
 8048cde:	0f b6 c0             	movzbl %al,%eax
 8048ce1:	0f b6 80 00 c0 04 08 	movzbl 0x804c000(%eax),%eax
 8048ce8:	0f b6 c0             	movzbl %al,%eax
 8048ceb:	83 e0 02             	and    $0x2,%eax
 8048cee:	85 c0                	test   %eax,%eax
 8048cf0:	74 1a                	je     8048d0c <simple_strtoull+0x15b>
 8048cf2:	8b 45 08             	mov    0x8(%ebp),%eax
 8048cf5:	0f b6 00             	movzbl (%eax),%eax
 8048cf8:	0f b6 c0             	movzbl %al,%eax
 8048cfb:	50                   	push   %eax
 8048cfc:	e8 ce fc ff ff       	call   80489cf <__toupper>
 8048d01:	83 c4 04             	add    $0x4,%esp
 8048d04:	0f b6 c0             	movzbl %al,%eax
 8048d07:	83 e8 37             	sub    $0x37,%eax
 8048d0a:	eb 0c                	jmp    8048d18 <simple_strtoull+0x167>
 8048d0c:	8b 45 08             	mov    0x8(%ebp),%eax
 8048d0f:	0f b6 00             	movzbl (%eax),%eax
 8048d12:	0f be c0             	movsbl %al,%eax
 8048d15:	83 e8 37             	sub    $0x37,%eax
 8048d18:	99                   	cltd   
 8048d19:	89 45 e8             	mov    %eax,-0x18(%ebp)
 8048d1c:	89 55 ec             	mov    %edx,-0x14(%ebp)
 8048d1f:	8b 45 10             	mov    0x10(%ebp),%eax
 8048d22:	ba 00 00 00 00       	mov    $0x0,%edx
 8048d27:	39 55 ec             	cmp    %edx,-0x14(%ebp)
 8048d2a:	0f 82 2f ff ff ff    	jb     8048c5f <simple_strtoull+0xae>
 8048d30:	39 55 ec             	cmp    %edx,-0x14(%ebp)
 8048d33:	77 09                	ja     8048d3e <simple_strtoull+0x18d>
 8048d35:	39 45 e8             	cmp    %eax,-0x18(%ebp)
 8048d38:	0f 82 21 ff ff ff    	jb     8048c5f <simple_strtoull+0xae>
 8048d3e:	83 7d 0c 00          	cmpl   $0x0,0xc(%ebp)
 8048d42:	74 08                	je     8048d4c <simple_strtoull+0x19b>
 8048d44:	8b 45 0c             	mov    0xc(%ebp),%eax
 8048d47:	8b 55 08             	mov    0x8(%ebp),%edx
 8048d4a:	89 10                	mov    %edx,(%eax)
 8048d4c:	8b 45 f0             	mov    -0x10(%ebp),%eax
 8048d4f:	8b 55 f4             	mov    -0xc(%ebp),%edx
 8048d52:	8b 5d fc             	mov    -0x4(%ebp),%ebx
 8048d55:	c9                   	leave  
 8048d56:	c3                   	ret    

08048d57 <simple_strtoll>:
 8048d57:	55                   	push   %ebp
 8048d58:	89 e5                	mov    %esp,%ebp
 8048d5a:	8b 45 08             	mov    0x8(%ebp),%eax
 8048d5d:	0f b6 00             	movzbl (%eax),%eax
 8048d60:	3c 2d                	cmp    $0x2d,%al
 8048d62:	75 21                	jne    8048d85 <simple_strtoll+0x2e>
 8048d64:	8b 45 08             	mov    0x8(%ebp),%eax
 8048d67:	83 c0 01             	add    $0x1,%eax
 8048d6a:	83 ec 04             	sub    $0x4,%esp
 8048d6d:	ff 75 10             	pushl  0x10(%ebp)
 8048d70:	ff 75 0c             	pushl  0xc(%ebp)
 8048d73:	50                   	push   %eax
 8048d74:	e8 38 fe ff ff       	call   8048bb1 <simple_strtoull>
 8048d79:	83 c4 10             	add    $0x10,%esp
 8048d7c:	f7 d8                	neg    %eax
 8048d7e:	83 d2 00             	adc    $0x0,%edx
 8048d81:	f7 da                	neg    %edx
 8048d83:	eb 14                	jmp    8048d99 <simple_strtoll+0x42>
 8048d85:	83 ec 04             	sub    $0x4,%esp
 8048d88:	ff 75 10             	pushl  0x10(%ebp)
 8048d8b:	ff 75 0c             	pushl  0xc(%ebp)
 8048d8e:	ff 75 08             	pushl  0x8(%ebp)
 8048d91:	e8 1b fe ff ff       	call   8048bb1 <simple_strtoull>
 8048d96:	83 c4 10             	add    $0x10,%esp
 8048d99:	c9                   	leave  
 8048d9a:	c3                   	ret    

08048d9b <skip_atoi>:
 8048d9b:	55                   	push   %ebp
 8048d9c:	89 e5                	mov    %esp,%ebp
 8048d9e:	53                   	push   %ebx
 8048d9f:	83 ec 10             	sub    $0x10,%esp
 8048da2:	c7 45 f8 00 00 00 00 	movl   $0x0,-0x8(%ebp)
 8048da9:	eb 29                	jmp    8048dd4 <skip_atoi+0x39>
 8048dab:	8b 55 f8             	mov    -0x8(%ebp),%edx
 8048dae:	89 d0                	mov    %edx,%eax
 8048db0:	c1 e0 02             	shl    $0x2,%eax
 8048db3:	01 d0                	add    %edx,%eax
 8048db5:	01 c0                	add    %eax,%eax
 8048db7:	89 c3                	mov    %eax,%ebx
 8048db9:	8b 45 08             	mov    0x8(%ebp),%eax
 8048dbc:	8b 00                	mov    (%eax),%eax
 8048dbe:	8d 48 01             	lea    0x1(%eax),%ecx
 8048dc1:	8b 55 08             	mov    0x8(%ebp),%edx
 8048dc4:	89 0a                	mov    %ecx,(%edx)
 8048dc6:	0f b6 00             	movzbl (%eax),%eax
 8048dc9:	0f be c0             	movsbl %al,%eax
 8048dcc:	01 d8                	add    %ebx,%eax
 8048dce:	83 e8 30             	sub    $0x30,%eax
 8048dd1:	89 45 f8             	mov    %eax,-0x8(%ebp)
 8048dd4:	8b 45 08             	mov    0x8(%ebp),%eax
 8048dd7:	8b 00                	mov    (%eax),%eax
 8048dd9:	0f b6 00             	movzbl (%eax),%eax
 8048ddc:	0f b6 c0             	movzbl %al,%eax
 8048ddf:	0f b6 80 00 c0 04 08 	movzbl 0x804c000(%eax),%eax
 8048de6:	0f b6 c0             	movzbl %al,%eax
 8048de9:	83 e0 04             	and    $0x4,%eax
 8048dec:	85 c0                	test   %eax,%eax
 8048dee:	75 bb                	jne    8048dab <skip_atoi+0x10>
 8048df0:	8b 45 f8             	mov    -0x8(%ebp),%eax
 8048df3:	83 c4 10             	add    $0x10,%esp
 8048df6:	5b                   	pop    %ebx
 8048df7:	5d                   	pop    %ebp
 8048df8:	c3                   	ret    

08048df9 <number>:
 8048df9:	55                   	push   %ebp
 8048dfa:	89 e5                	mov    %esp,%ebp
 8048dfc:	83 ec 78             	sub    $0x78,%esp
 8048dff:	8b 45 10             	mov    0x10(%ebp),%eax
 8048e02:	89 45 88             	mov    %eax,-0x78(%ebp)
 8048e05:	8b 45 14             	mov    0x14(%ebp),%eax
 8048e08:	89 45 8c             	mov    %eax,-0x74(%ebp)
 8048e0b:	8b 45 24             	mov    0x24(%ebp),%eax
 8048e0e:	83 e0 40             	and    $0x40,%eax
 8048e11:	85 c0                	test   %eax,%eax
 8048e13:	74 07                	je     8048e1c <number+0x23>
 8048e15:	b8 40 a3 04 08       	mov    $0x804a340,%eax
 8048e1a:	eb 05                	jmp    8048e21 <number+0x28>
 8048e1c:	b8 80 a3 04 08       	mov    $0x804a380,%eax
 8048e21:	89 45 ec             	mov    %eax,-0x14(%ebp)
 8048e24:	8b 45 24             	mov    0x24(%ebp),%eax
 8048e27:	83 e0 10             	and    $0x10,%eax
 8048e2a:	85 c0                	test   %eax,%eax
 8048e2c:	74 04                	je     8048e32 <number+0x39>
 8048e2e:	83 65 24 fe          	andl   $0xfffffffe,0x24(%ebp)
 8048e32:	83 7d 18 01          	cmpl   $0x1,0x18(%ebp)
 8048e36:	7e 06                	jle    8048e3e <number+0x45>
 8048e38:	83 7d 18 24          	cmpl   $0x24,0x18(%ebp)
 8048e3c:	7e 0a                	jle    8048e48 <number+0x4f>
 8048e3e:	b8 00 00 00 00       	mov    $0x0,%eax
 8048e43:	e9 79 02 00 00       	jmp    80490c1 <number+0x2c8>
 8048e48:	8b 45 24             	mov    0x24(%ebp),%eax
 8048e4b:	83 e0 01             	and    $0x1,%eax
 8048e4e:	85 c0                	test   %eax,%eax
 8048e50:	74 07                	je     8048e59 <number+0x60>
 8048e52:	b8 30 00 00 00       	mov    $0x30,%eax
 8048e57:	eb 05                	jmp    8048e5e <number+0x65>
 8048e59:	b8 20 00 00 00       	mov    $0x20,%eax
 8048e5e:	88 45 eb             	mov    %al,-0x15(%ebp)
 8048e61:	c6 45 ff 00          	movb   $0x0,-0x1(%ebp)
 8048e65:	8b 45 24             	mov    0x24(%ebp),%eax
 8048e68:	83 e0 02             	and    $0x2,%eax
 8048e6b:	85 c0                	test   %eax,%eax
 8048e6d:	74 4d                	je     8048ebc <number+0xc3>
 8048e6f:	8b 45 88             	mov    -0x78(%ebp),%eax
 8048e72:	8b 55 8c             	mov    -0x74(%ebp),%edx
 8048e75:	85 d2                	test   %edx,%edx
 8048e77:	79 1d                	jns    8048e96 <number+0x9d>
 8048e79:	c6 45 ff 2d          	movb   $0x2d,-0x1(%ebp)
 8048e7d:	8b 45 88             	mov    -0x78(%ebp),%eax
 8048e80:	8b 55 8c             	mov    -0x74(%ebp),%edx
 8048e83:	f7 d8                	neg    %eax
 8048e85:	83 d2 00             	adc    $0x0,%edx
 8048e88:	f7 da                	neg    %edx
 8048e8a:	89 45 88             	mov    %eax,-0x78(%ebp)
 8048e8d:	89 55 8c             	mov    %edx,-0x74(%ebp)
 8048e90:	83 6d 1c 01          	subl   $0x1,0x1c(%ebp)
 8048e94:	eb 26                	jmp    8048ebc <number+0xc3>
 8048e96:	8b 45 24             	mov    0x24(%ebp),%eax
 8048e99:	83 e0 04             	and    $0x4,%eax
 8048e9c:	85 c0                	test   %eax,%eax
 8048e9e:	74 0a                	je     8048eaa <number+0xb1>
 8048ea0:	c6 45 ff 2b          	movb   $0x2b,-0x1(%ebp)
 8048ea4:	83 6d 1c 01          	subl   $0x1,0x1c(%ebp)
 8048ea8:	eb 12                	jmp    8048ebc <number+0xc3>
 8048eaa:	8b 45 24             	mov    0x24(%ebp),%eax
 8048ead:	83 e0 08             	and    $0x8,%eax
 8048eb0:	85 c0                	test   %eax,%eax
 8048eb2:	74 08                	je     8048ebc <number+0xc3>
 8048eb4:	c6 45 ff 20          	movb   $0x20,-0x1(%ebp)
 8048eb8:	83 6d 1c 01          	subl   $0x1,0x1c(%ebp)
 8048ebc:	8b 45 24             	mov    0x24(%ebp),%eax
 8048ebf:	83 e0 20             	and    $0x20,%eax
 8048ec2:	85 c0                	test   %eax,%eax
 8048ec4:	74 16                	je     8048edc <number+0xe3>
 8048ec6:	83 7d 18 10          	cmpl   $0x10,0x18(%ebp)
 8048eca:	75 06                	jne    8048ed2 <number+0xd9>
 8048ecc:	83 6d 1c 02          	subl   $0x2,0x1c(%ebp)
 8048ed0:	eb 0a                	jmp    8048edc <number+0xe3>
 8048ed2:	83 7d 18 08          	cmpl   $0x8,0x18(%ebp)
 8048ed6:	75 04                	jne    8048edc <number+0xe3>
 8048ed8:	83 6d 1c 01          	subl   $0x1,0x1c(%ebp)
 8048edc:	c7 45 f8 00 00 00 00 	movl   $0x0,-0x8(%ebp)
 8048ee3:	8b 45 8c             	mov    -0x74(%ebp),%eax
 8048ee6:	0b 45 88             	or     -0x78(%ebp),%eax
 8048ee9:	85 c0                	test   %eax,%eax
 8048eeb:	75 7d                	jne    8048f6a <number+0x171>
 8048eed:	8b 45 f8             	mov    -0x8(%ebp),%eax
 8048ef0:	8d 50 01             	lea    0x1(%eax),%edx
 8048ef3:	89 55 f8             	mov    %edx,-0x8(%ebp)
 8048ef6:	c6 44 05 9a 30       	movb   $0x30,-0x66(%ebp,%eax,1)
 8048efb:	eb 77                	jmp    8048f74 <number+0x17b>
 8048efd:	8b 4d f8             	mov    -0x8(%ebp),%ecx
 8048f00:	8d 41 01             	lea    0x1(%ecx),%eax
 8048f03:	89 45 f8             	mov    %eax,-0x8(%ebp)
 8048f06:	8b 45 18             	mov    0x18(%ebp),%eax
 8048f09:	89 45 e4             	mov    %eax,-0x1c(%ebp)
 8048f0c:	8b 45 88             	mov    -0x78(%ebp),%eax
 8048f0f:	8b 55 8c             	mov    -0x74(%ebp),%edx
 8048f12:	89 45 e0             	mov    %eax,-0x20(%ebp)
 8048f15:	89 55 f0             	mov    %edx,-0x10(%ebp)
 8048f18:	8b 45 f0             	mov    -0x10(%ebp),%eax
 8048f1b:	89 45 f4             	mov    %eax,-0xc(%ebp)
 8048f1e:	83 7d f0 00          	cmpl   $0x0,-0x10(%ebp)
 8048f22:	74 1c                	je     8048f40 <number+0x147>
 8048f24:	8b 45 f0             	mov    -0x10(%ebp),%eax
 8048f27:	ba 00 00 00 00       	mov    $0x0,%edx
 8048f2c:	f7 75 e4             	divl   -0x1c(%ebp)
 8048f2f:	89 55 f4             	mov    %edx,-0xc(%ebp)
 8048f32:	8b 45 f0             	mov    -0x10(%ebp),%eax
 8048f35:	ba 00 00 00 00       	mov    $0x0,%edx
 8048f3a:	f7 75 e4             	divl   -0x1c(%ebp)
 8048f3d:	89 45 f0             	mov    %eax,-0x10(%ebp)
 8048f40:	8b 45 e0             	mov    -0x20(%ebp),%eax
 8048f43:	8b 55 f4             	mov    -0xc(%ebp),%edx
 8048f46:	f7 75 e4             	divl   -0x1c(%ebp)
 8048f49:	89 45 e0             	mov    %eax,-0x20(%ebp)
 8048f4c:	89 55 dc             	mov    %edx,-0x24(%ebp)
 8048f4f:	8b 45 e0             	mov    -0x20(%ebp),%eax
 8048f52:	8b 55 f0             	mov    -0x10(%ebp),%edx
 8048f55:	89 45 88             	mov    %eax,-0x78(%ebp)
 8048f58:	89 55 8c             	mov    %edx,-0x74(%ebp)
 8048f5b:	8b 55 dc             	mov    -0x24(%ebp),%edx
 8048f5e:	8b 45 ec             	mov    -0x14(%ebp),%eax
 8048f61:	01 d0                	add    %edx,%eax
 8048f63:	0f b6 00             	movzbl (%eax),%eax
 8048f66:	88 44 0d 9a          	mov    %al,-0x66(%ebp,%ecx,1)
 8048f6a:	8b 45 8c             	mov    -0x74(%ebp),%eax
 8048f6d:	0b 45 88             	or     -0x78(%ebp),%eax
 8048f70:	85 c0                	test   %eax,%eax
 8048f72:	75 89                	jne    8048efd <number+0x104>
 8048f74:	8b 45 f8             	mov    -0x8(%ebp),%eax
 8048f77:	3b 45 20             	cmp    0x20(%ebp),%eax
 8048f7a:	7e 06                	jle    8048f82 <number+0x189>
 8048f7c:	8b 45 f8             	mov    -0x8(%ebp),%eax
 8048f7f:	89 45 20             	mov    %eax,0x20(%ebp)
 8048f82:	8b 45 20             	mov    0x20(%ebp),%eax
 8048f85:	29 45 1c             	sub    %eax,0x1c(%ebp)
 8048f88:	8b 45 24             	mov    0x24(%ebp),%eax
 8048f8b:	83 e0 11             	and    $0x11,%eax
 8048f8e:	85 c0                	test   %eax,%eax
 8048f90:	75 21                	jne    8048fb3 <number+0x1ba>
 8048f92:	eb 12                	jmp    8048fa6 <number+0x1ad>
 8048f94:	8b 45 08             	mov    0x8(%ebp),%eax
 8048f97:	3b 45 0c             	cmp    0xc(%ebp),%eax
 8048f9a:	77 06                	ja     8048fa2 <number+0x1a9>
 8048f9c:	8b 45 08             	mov    0x8(%ebp),%eax
 8048f9f:	c6 00 20             	movb   $0x20,(%eax)
 8048fa2:	83 45 08 01          	addl   $0x1,0x8(%ebp)
 8048fa6:	8b 45 1c             	mov    0x1c(%ebp),%eax
 8048fa9:	8d 50 ff             	lea    -0x1(%eax),%edx
 8048fac:	89 55 1c             	mov    %edx,0x1c(%ebp)
 8048faf:	85 c0                	test   %eax,%eax
 8048fb1:	7f e1                	jg     8048f94 <number+0x19b>
 8048fb3:	80 7d ff 00          	cmpb   $0x0,-0x1(%ebp)
 8048fb7:	74 15                	je     8048fce <number+0x1d5>
 8048fb9:	8b 45 08             	mov    0x8(%ebp),%eax
 8048fbc:	3b 45 0c             	cmp    0xc(%ebp),%eax
 8048fbf:	77 09                	ja     8048fca <number+0x1d1>
 8048fc1:	8b 45 08             	mov    0x8(%ebp),%eax
 8048fc4:	0f b6 55 ff          	movzbl -0x1(%ebp),%edx
 8048fc8:	88 10                	mov    %dl,(%eax)
 8048fca:	83 45 08 01          	addl   $0x1,0x8(%ebp)
 8048fce:	8b 45 24             	mov    0x24(%ebp),%eax
 8048fd1:	83 e0 20             	and    $0x20,%eax
 8048fd4:	85 c0                	test   %eax,%eax
 8048fd6:	74 4a                	je     8049022 <number+0x229>
 8048fd8:	83 7d 18 08          	cmpl   $0x8,0x18(%ebp)
 8048fdc:	75 14                	jne    8048ff2 <number+0x1f9>
 8048fde:	8b 45 08             	mov    0x8(%ebp),%eax
 8048fe1:	3b 45 0c             	cmp    0xc(%ebp),%eax
 8048fe4:	77 06                	ja     8048fec <number+0x1f3>
 8048fe6:	8b 45 08             	mov    0x8(%ebp),%eax
 8048fe9:	c6 00 30             	movb   $0x30,(%eax)
 8048fec:	83 45 08 01          	addl   $0x1,0x8(%ebp)
 8048ff0:	eb 30                	jmp    8049022 <number+0x229>
 8048ff2:	83 7d 18 10          	cmpl   $0x10,0x18(%ebp)
 8048ff6:	75 2a                	jne    8049022 <number+0x229>
 8048ff8:	8b 45 08             	mov    0x8(%ebp),%eax
 8048ffb:	3b 45 0c             	cmp    0xc(%ebp),%eax
 8048ffe:	77 06                	ja     8049006 <number+0x20d>
 8049000:	8b 45 08             	mov    0x8(%ebp),%eax
 8049003:	c6 00 30             	movb   $0x30,(%eax)
 8049006:	83 45 08 01          	addl   $0x1,0x8(%ebp)
 804900a:	8b 45 08             	mov    0x8(%ebp),%eax
 804900d:	3b 45 0c             	cmp    0xc(%ebp),%eax
 8049010:	77 0c                	ja     804901e <number+0x225>
 8049012:	8b 45 ec             	mov    -0x14(%ebp),%eax
 8049015:	0f b6 50 21          	movzbl 0x21(%eax),%edx
 8049019:	8b 45 08             	mov    0x8(%ebp),%eax
 804901c:	88 10                	mov    %dl,(%eax)
 804901e:	83 45 08 01          	addl   $0x1,0x8(%ebp)
 8049022:	8b 45 24             	mov    0x24(%ebp),%eax
 8049025:	83 e0 10             	and    $0x10,%eax
 8049028:	85 c0                	test   %eax,%eax
 804902a:	75 38                	jne    8049064 <number+0x26b>
 804902c:	eb 15                	jmp    8049043 <number+0x24a>
 804902e:	8b 45 08             	mov    0x8(%ebp),%eax
 8049031:	3b 45 0c             	cmp    0xc(%ebp),%eax
 8049034:	77 09                	ja     804903f <number+0x246>
 8049036:	8b 45 08             	mov    0x8(%ebp),%eax
 8049039:	0f b6 55 eb          	movzbl -0x15(%ebp),%edx
 804903d:	88 10                	mov    %dl,(%eax)
 804903f:	83 45 08 01          	addl   $0x1,0x8(%ebp)
 8049043:	8b 45 1c             	mov    0x1c(%ebp),%eax
 8049046:	8d 50 ff             	lea    -0x1(%eax),%edx
 8049049:	89 55 1c             	mov    %edx,0x1c(%ebp)
 804904c:	85 c0                	test   %eax,%eax
 804904e:	7f de                	jg     804902e <number+0x235>
 8049050:	eb 12                	jmp    8049064 <number+0x26b>
 8049052:	8b 45 08             	mov    0x8(%ebp),%eax
 8049055:	3b 45 0c             	cmp    0xc(%ebp),%eax
 8049058:	77 06                	ja     8049060 <number+0x267>
 804905a:	8b 45 08             	mov    0x8(%ebp),%eax
 804905d:	c6 00 30             	movb   $0x30,(%eax)
 8049060:	83 45 08 01          	addl   $0x1,0x8(%ebp)
 8049064:	8b 45 20             	mov    0x20(%ebp),%eax
 8049067:	8d 50 ff             	lea    -0x1(%eax),%edx
 804906a:	89 55 20             	mov    %edx,0x20(%ebp)
 804906d:	3b 45 f8             	cmp    -0x8(%ebp),%eax
 8049070:	7f e0                	jg     8049052 <number+0x259>
 8049072:	eb 1c                	jmp    8049090 <number+0x297>
 8049074:	8b 45 08             	mov    0x8(%ebp),%eax
 8049077:	3b 45 0c             	cmp    0xc(%ebp),%eax
 804907a:	77 10                	ja     804908c <number+0x293>
 804907c:	8d 55 9a             	lea    -0x66(%ebp),%edx
 804907f:	8b 45 f8             	mov    -0x8(%ebp),%eax
 8049082:	01 d0                	add    %edx,%eax
 8049084:	0f b6 10             	movzbl (%eax),%edx
 8049087:	8b 45 08             	mov    0x8(%ebp),%eax
 804908a:	88 10                	mov    %dl,(%eax)
 804908c:	83 45 08 01          	addl   $0x1,0x8(%ebp)
 8049090:	8b 45 f8             	mov    -0x8(%ebp),%eax
 8049093:	8d 50 ff             	lea    -0x1(%eax),%edx
 8049096:	89 55 f8             	mov    %edx,-0x8(%ebp)
 8049099:	85 c0                	test   %eax,%eax
 804909b:	7f d7                	jg     8049074 <number+0x27b>
 804909d:	eb 12                	jmp    80490b1 <number+0x2b8>
 804909f:	8b 45 08             	mov    0x8(%ebp),%eax
 80490a2:	3b 45 0c             	cmp    0xc(%ebp),%eax
 80490a5:	77 06                	ja     80490ad <number+0x2b4>
 80490a7:	8b 45 08             	mov    0x8(%ebp),%eax
 80490aa:	c6 00 20             	movb   $0x20,(%eax)
 80490ad:	83 45 08 01          	addl   $0x1,0x8(%ebp)
 80490b1:	8b 45 1c             	mov    0x1c(%ebp),%eax
 80490b4:	8d 50 ff             	lea    -0x1(%eax),%edx
 80490b7:	89 55 1c             	mov    %edx,0x1c(%ebp)
 80490ba:	85 c0                	test   %eax,%eax
 80490bc:	7f e1                	jg     804909f <number+0x2a6>
 80490be:	8b 45 08             	mov    0x8(%ebp),%eax
 80490c1:	c9                   	leave  
 80490c2:	c3                   	ret    

080490c3 <vsnprintf>:
 80490c3:	55                   	push   %ebp
 80490c4:	89 e5                	mov    %esp,%ebp
 80490c6:	83 ec 48             	sub    $0x48,%esp
 80490c9:	8b 45 0c             	mov    0xc(%ebp),%eax
 80490cc:	c1 e8 1f             	shr    $0x1f,%eax
 80490cf:	0f b6 c0             	movzbl %al,%eax
 80490d2:	85 c0                	test   %eax,%eax
 80490d4:	74 0a                	je     80490e0 <vsnprintf+0x1d>
 80490d6:	b8 00 00 00 00       	mov    $0x0,%eax
 80490db:	e9 9e 05 00 00       	jmp    804967e <vsnprintf+0x5bb>
 80490e0:	8b 45 08             	mov    0x8(%ebp),%eax
 80490e3:	89 45 e4             	mov    %eax,-0x1c(%ebp)
 80490e6:	8b 45 0c             	mov    0xc(%ebp),%eax
 80490e9:	8d 50 ff             	lea    -0x1(%eax),%edx
 80490ec:	8b 45 08             	mov    0x8(%ebp),%eax
 80490ef:	01 d0                	add    %edx,%eax
 80490f1:	89 45 e0             	mov    %eax,-0x20(%ebp)
 80490f4:	8b 45 08             	mov    0x8(%ebp),%eax
 80490f7:	83 e8 01             	sub    $0x1,%eax
 80490fa:	3b 45 e0             	cmp    -0x20(%ebp),%eax
 80490fd:	0f 86 47 05 00 00    	jbe    804964a <vsnprintf+0x587>
 8049103:	c7 45 e0 ff ff ff ff 	movl   $0xffffffff,-0x20(%ebp)
 804910a:	8b 55 e0             	mov    -0x20(%ebp),%edx
 804910d:	8b 45 08             	mov    0x8(%ebp),%eax
 8049110:	29 c2                	sub    %eax,%edx
 8049112:	89 d0                	mov    %edx,%eax
 8049114:	83 c0 01             	add    $0x1,%eax
 8049117:	89 45 0c             	mov    %eax,0xc(%ebp)
 804911a:	e9 2b 05 00 00       	jmp    804964a <vsnprintf+0x587>
 804911f:	8b 45 10             	mov    0x10(%ebp),%eax
 8049122:	0f b6 00             	movzbl (%eax),%eax
 8049125:	3c 25                	cmp    $0x25,%al
 8049127:	74 1c                	je     8049145 <vsnprintf+0x82>
 8049129:	8b 45 e4             	mov    -0x1c(%ebp),%eax
 804912c:	3b 45 e0             	cmp    -0x20(%ebp),%eax
 804912f:	77 0b                	ja     804913c <vsnprintf+0x79>
 8049131:	8b 45 10             	mov    0x10(%ebp),%eax
 8049134:	0f b6 10             	movzbl (%eax),%edx
 8049137:	8b 45 e4             	mov    -0x1c(%ebp),%eax
 804913a:	88 10                	mov    %dl,(%eax)
 804913c:	83 45 e4 01          	addl   $0x1,-0x1c(%ebp)
 8049140:	e9 fc 04 00 00       	jmp    8049641 <vsnprintf+0x57e>
 8049145:	c7 45 d8 00 00 00 00 	movl   $0x0,-0x28(%ebp)
 804914c:	8b 45 10             	mov    0x10(%ebp),%eax
 804914f:	83 c0 01             	add    $0x1,%eax
 8049152:	89 45 10             	mov    %eax,0x10(%ebp)
 8049155:	8b 45 10             	mov    0x10(%ebp),%eax
 8049158:	0f b6 00             	movzbl (%eax),%eax
 804915b:	0f be c0             	movsbl %al,%eax
 804915e:	83 e8 20             	sub    $0x20,%eax
 8049161:	83 f8 10             	cmp    $0x10,%eax
 8049164:	77 27                	ja     804918d <vsnprintf+0xca>
 8049166:	8b 04 85 88 9f 04 08 	mov    0x8049f88(,%eax,4),%eax
 804916d:	ff e0                	jmp    *%eax
 804916f:	83 4d d8 10          	orl    $0x10,-0x28(%ebp)
 8049173:	eb d7                	jmp    804914c <vsnprintf+0x89>
 8049175:	83 4d d8 04          	orl    $0x4,-0x28(%ebp)
 8049179:	eb d1                	jmp    804914c <vsnprintf+0x89>
 804917b:	83 4d d8 08          	orl    $0x8,-0x28(%ebp)
 804917f:	eb cb                	jmp    804914c <vsnprintf+0x89>
 8049181:	83 4d d8 20          	orl    $0x20,-0x28(%ebp)
 8049185:	eb c5                	jmp    804914c <vsnprintf+0x89>
 8049187:	83 4d d8 01          	orl    $0x1,-0x28(%ebp)
 804918b:	eb bf                	jmp    804914c <vsnprintf+0x89>
 804918d:	c7 45 d4 ff ff ff ff 	movl   $0xffffffff,-0x2c(%ebp)
 8049194:	8b 45 10             	mov    0x10(%ebp),%eax
 8049197:	0f b6 00             	movzbl (%eax),%eax
 804919a:	0f b6 c0             	movzbl %al,%eax
 804919d:	0f b6 80 00 c0 04 08 	movzbl 0x804c000(%eax),%eax
 80491a4:	0f b6 c0             	movzbl %al,%eax
 80491a7:	83 e0 04             	and    $0x4,%eax
 80491aa:	85 c0                	test   %eax,%eax
 80491ac:	74 11                	je     80491bf <vsnprintf+0xfc>
 80491ae:	8d 45 10             	lea    0x10(%ebp),%eax
 80491b1:	50                   	push   %eax
 80491b2:	e8 e4 fb ff ff       	call   8048d9b <skip_atoi>
 80491b7:	83 c4 04             	add    $0x4,%esp
 80491ba:	89 45 d4             	mov    %eax,-0x2c(%ebp)
 80491bd:	eb 2d                	jmp    80491ec <vsnprintf+0x129>
 80491bf:	8b 45 10             	mov    0x10(%ebp),%eax
 80491c2:	0f b6 00             	movzbl (%eax),%eax
 80491c5:	3c 2a                	cmp    $0x2a,%al
 80491c7:	75 23                	jne    80491ec <vsnprintf+0x129>
 80491c9:	8b 45 10             	mov    0x10(%ebp),%eax
 80491cc:	83 c0 01             	add    $0x1,%eax
 80491cf:	89 45 10             	mov    %eax,0x10(%ebp)
 80491d2:	83 45 14 04          	addl   $0x4,0x14(%ebp)
 80491d6:	8b 45 14             	mov    0x14(%ebp),%eax
 80491d9:	8b 40 fc             	mov    -0x4(%eax),%eax
 80491dc:	89 45 d4             	mov    %eax,-0x2c(%ebp)
 80491df:	83 7d d4 00          	cmpl   $0x0,-0x2c(%ebp)
 80491e3:	79 07                	jns    80491ec <vsnprintf+0x129>
 80491e5:	f7 5d d4             	negl   -0x2c(%ebp)
 80491e8:	83 4d d8 10          	orl    $0x10,-0x28(%ebp)
 80491ec:	c7 45 d0 ff ff ff ff 	movl   $0xffffffff,-0x30(%ebp)
 80491f3:	8b 45 10             	mov    0x10(%ebp),%eax
 80491f6:	0f b6 00             	movzbl (%eax),%eax
 80491f9:	3c 2e                	cmp    $0x2e,%al
 80491fb:	75 61                	jne    804925e <vsnprintf+0x19b>
 80491fd:	8b 45 10             	mov    0x10(%ebp),%eax
 8049200:	83 c0 01             	add    $0x1,%eax
 8049203:	89 45 10             	mov    %eax,0x10(%ebp)
 8049206:	8b 45 10             	mov    0x10(%ebp),%eax
 8049209:	0f b6 00             	movzbl (%eax),%eax
 804920c:	0f b6 c0             	movzbl %al,%eax
 804920f:	0f b6 80 00 c0 04 08 	movzbl 0x804c000(%eax),%eax
 8049216:	0f b6 c0             	movzbl %al,%eax
 8049219:	83 e0 04             	and    $0x4,%eax
 804921c:	85 c0                	test   %eax,%eax
 804921e:	74 11                	je     8049231 <vsnprintf+0x16e>
 8049220:	8d 45 10             	lea    0x10(%ebp),%eax
 8049223:	50                   	push   %eax
 8049224:	e8 72 fb ff ff       	call   8048d9b <skip_atoi>
 8049229:	83 c4 04             	add    $0x4,%esp
 804922c:	89 45 d0             	mov    %eax,-0x30(%ebp)
 804922f:	eb 20                	jmp    8049251 <vsnprintf+0x18e>
 8049231:	8b 45 10             	mov    0x10(%ebp),%eax
 8049234:	0f b6 00             	movzbl (%eax),%eax
 8049237:	3c 2a                	cmp    $0x2a,%al
 8049239:	75 16                	jne    8049251 <vsnprintf+0x18e>
 804923b:	8b 45 10             	mov    0x10(%ebp),%eax
 804923e:	83 c0 01             	add    $0x1,%eax
 8049241:	89 45 10             	mov    %eax,0x10(%ebp)
 8049244:	83 45 14 04          	addl   $0x4,0x14(%ebp)
 8049248:	8b 45 14             	mov    0x14(%ebp),%eax
 804924b:	8b 40 fc             	mov    -0x4(%eax),%eax
 804924e:	89 45 d0             	mov    %eax,-0x30(%ebp)
 8049251:	83 7d d0 00          	cmpl   $0x0,-0x30(%ebp)
 8049255:	79 07                	jns    804925e <vsnprintf+0x19b>
 8049257:	c7 45 d0 00 00 00 00 	movl   $0x0,-0x30(%ebp)
 804925e:	c7 45 cc ff ff ff ff 	movl   $0xffffffff,-0x34(%ebp)
 8049265:	8b 45 10             	mov    0x10(%ebp),%eax
 8049268:	0f b6 00             	movzbl (%eax),%eax
 804926b:	3c 68                	cmp    $0x68,%al
 804926d:	74 28                	je     8049297 <vsnprintf+0x1d4>
 804926f:	8b 45 10             	mov    0x10(%ebp),%eax
 8049272:	0f b6 00             	movzbl (%eax),%eax
 8049275:	3c 6c                	cmp    $0x6c,%al
 8049277:	74 1e                	je     8049297 <vsnprintf+0x1d4>
 8049279:	8b 45 10             	mov    0x10(%ebp),%eax
 804927c:	0f b6 00             	movzbl (%eax),%eax
 804927f:	3c 4c                	cmp    $0x4c,%al
 8049281:	74 14                	je     8049297 <vsnprintf+0x1d4>
 8049283:	8b 45 10             	mov    0x10(%ebp),%eax
 8049286:	0f b6 00             	movzbl (%eax),%eax
 8049289:	3c 5a                	cmp    $0x5a,%al
 804928b:	74 0a                	je     8049297 <vsnprintf+0x1d4>
 804928d:	8b 45 10             	mov    0x10(%ebp),%eax
 8049290:	0f b6 00             	movzbl (%eax),%eax
 8049293:	3c 7a                	cmp    $0x7a,%al
 8049295:	75 35                	jne    80492cc <vsnprintf+0x209>
 8049297:	8b 45 10             	mov    0x10(%ebp),%eax
 804929a:	0f b6 00             	movzbl (%eax),%eax
 804929d:	0f be c0             	movsbl %al,%eax
 80492a0:	89 45 cc             	mov    %eax,-0x34(%ebp)
 80492a3:	8b 45 10             	mov    0x10(%ebp),%eax
 80492a6:	83 c0 01             	add    $0x1,%eax
 80492a9:	89 45 10             	mov    %eax,0x10(%ebp)
 80492ac:	83 7d cc 6c          	cmpl   $0x6c,-0x34(%ebp)
 80492b0:	75 1a                	jne    80492cc <vsnprintf+0x209>
 80492b2:	8b 45 10             	mov    0x10(%ebp),%eax
 80492b5:	0f b6 00             	movzbl (%eax),%eax
 80492b8:	3c 6c                	cmp    $0x6c,%al
 80492ba:	75 10                	jne    80492cc <vsnprintf+0x209>
 80492bc:	c7 45 cc 4c 00 00 00 	movl   $0x4c,-0x34(%ebp)
 80492c3:	8b 45 10             	mov    0x10(%ebp),%eax
 80492c6:	83 c0 01             	add    $0x1,%eax
 80492c9:	89 45 10             	mov    %eax,0x10(%ebp)
 80492cc:	c7 45 e8 0a 00 00 00 	movl   $0xa,-0x18(%ebp)
 80492d3:	8b 45 10             	mov    0x10(%ebp),%eax
 80492d6:	0f b6 00             	movzbl (%eax),%eax
 80492d9:	0f be c0             	movsbl %al,%eax
 80492dc:	83 e8 25             	sub    $0x25,%eax
 80492df:	83 f8 53             	cmp    $0x53,%eax
 80492e2:	0f 87 15 02 00 00    	ja     80494fd <vsnprintf+0x43a>
 80492e8:	8b 04 85 cc 9f 04 08 	mov    0x8049fcc(,%eax,4),%eax
 80492ef:	ff e0                	jmp    *%eax
 80492f1:	8b 45 d8             	mov    -0x28(%ebp),%eax
 80492f4:	83 e0 10             	and    $0x10,%eax
 80492f7:	85 c0                	test   %eax,%eax
 80492f9:	75 1e                	jne    8049319 <vsnprintf+0x256>
 80492fb:	eb 12                	jmp    804930f <vsnprintf+0x24c>
 80492fd:	8b 45 e4             	mov    -0x1c(%ebp),%eax
 8049300:	3b 45 e0             	cmp    -0x20(%ebp),%eax
 8049303:	77 06                	ja     804930b <vsnprintf+0x248>
 8049305:	8b 45 e4             	mov    -0x1c(%ebp),%eax
 8049308:	c6 00 20             	movb   $0x20,(%eax)
 804930b:	83 45 e4 01          	addl   $0x1,-0x1c(%ebp)
 804930f:	83 6d d4 01          	subl   $0x1,-0x2c(%ebp)
 8049313:	83 7d d4 00          	cmpl   $0x0,-0x2c(%ebp)
 8049317:	7f e4                	jg     80492fd <vsnprintf+0x23a>
 8049319:	83 45 14 04          	addl   $0x4,0x14(%ebp)
 804931d:	8b 45 14             	mov    0x14(%ebp),%eax
 8049320:	83 e8 04             	sub    $0x4,%eax
 8049323:	8b 00                	mov    (%eax),%eax
 8049325:	88 45 cb             	mov    %al,-0x35(%ebp)
 8049328:	8b 45 e4             	mov    -0x1c(%ebp),%eax
 804932b:	3b 45 e0             	cmp    -0x20(%ebp),%eax
 804932e:	77 09                	ja     8049339 <vsnprintf+0x276>
 8049330:	8b 45 e4             	mov    -0x1c(%ebp),%eax
 8049333:	0f b6 55 cb          	movzbl -0x35(%ebp),%edx
 8049337:	88 10                	mov    %dl,(%eax)
 8049339:	83 45 e4 01          	addl   $0x1,-0x1c(%ebp)
 804933d:	eb 12                	jmp    8049351 <vsnprintf+0x28e>
 804933f:	8b 45 e4             	mov    -0x1c(%ebp),%eax
 8049342:	3b 45 e0             	cmp    -0x20(%ebp),%eax
 8049345:	77 06                	ja     804934d <vsnprintf+0x28a>
 8049347:	8b 45 e4             	mov    -0x1c(%ebp),%eax
 804934a:	c6 00 20             	movb   $0x20,(%eax)
 804934d:	83 45 e4 01          	addl   $0x1,-0x1c(%ebp)
 8049351:	83 6d d4 01          	subl   $0x1,-0x2c(%ebp)
 8049355:	83 7d d4 00          	cmpl   $0x0,-0x2c(%ebp)
 8049359:	7f e4                	jg     804933f <vsnprintf+0x27c>
 804935b:	e9 e1 02 00 00       	jmp    8049641 <vsnprintf+0x57e>
 8049360:	83 45 14 04          	addl   $0x4,0x14(%ebp)
 8049364:	8b 45 14             	mov    0x14(%ebp),%eax
 8049367:	8b 40 fc             	mov    -0x4(%eax),%eax
 804936a:	89 45 dc             	mov    %eax,-0x24(%ebp)
 804936d:	8b 45 dc             	mov    -0x24(%ebp),%eax
 8049370:	3d ff 03 00 00       	cmp    $0x3ff,%eax
 8049375:	77 07                	ja     804937e <vsnprintf+0x2bb>
 8049377:	c7 45 dc 80 9f 04 08 	movl   $0x8049f80,-0x24(%ebp)
 804937e:	83 ec 08             	sub    $0x8,%esp
 8049381:	ff 75 d0             	pushl  -0x30(%ebp)
 8049384:	ff 75 dc             	pushl  -0x24(%ebp)
 8049387:	e8 35 f2 ff ff       	call   80485c1 <strnlen>
 804938c:	83 c4 10             	add    $0x10,%esp
 804938f:	89 45 c4             	mov    %eax,-0x3c(%ebp)
 8049392:	8b 45 d8             	mov    -0x28(%ebp),%eax
 8049395:	83 e0 10             	and    $0x10,%eax
 8049398:	85 c0                	test   %eax,%eax
 804939a:	75 22                	jne    80493be <vsnprintf+0x2fb>
 804939c:	eb 12                	jmp    80493b0 <vsnprintf+0x2ed>
 804939e:	8b 45 e4             	mov    -0x1c(%ebp),%eax
 80493a1:	3b 45 e0             	cmp    -0x20(%ebp),%eax
 80493a4:	77 06                	ja     80493ac <vsnprintf+0x2e9>
 80493a6:	8b 45 e4             	mov    -0x1c(%ebp),%eax
 80493a9:	c6 00 20             	movb   $0x20,(%eax)
 80493ac:	83 45 e4 01          	addl   $0x1,-0x1c(%ebp)
 80493b0:	8b 45 d4             	mov    -0x2c(%ebp),%eax
 80493b3:	8d 50 ff             	lea    -0x1(%eax),%edx
 80493b6:	89 55 d4             	mov    %edx,-0x2c(%ebp)
 80493b9:	3b 45 c4             	cmp    -0x3c(%ebp),%eax
 80493bc:	7f e0                	jg     804939e <vsnprintf+0x2db>
 80493be:	c7 45 ec 00 00 00 00 	movl   $0x0,-0x14(%ebp)
 80493c5:	eb 1f                	jmp    80493e6 <vsnprintf+0x323>
 80493c7:	8b 45 e4             	mov    -0x1c(%ebp),%eax
 80493ca:	3b 45 e0             	cmp    -0x20(%ebp),%eax
 80493cd:	77 0b                	ja     80493da <vsnprintf+0x317>
 80493cf:	8b 45 dc             	mov    -0x24(%ebp),%eax
 80493d2:	0f b6 10             	movzbl (%eax),%edx
 80493d5:	8b 45 e4             	mov    -0x1c(%ebp),%eax
 80493d8:	88 10                	mov    %dl,(%eax)
 80493da:	83 45 e4 01          	addl   $0x1,-0x1c(%ebp)
 80493de:	83 45 dc 01          	addl   $0x1,-0x24(%ebp)
 80493e2:	83 45 ec 01          	addl   $0x1,-0x14(%ebp)
 80493e6:	8b 45 ec             	mov    -0x14(%ebp),%eax
 80493e9:	3b 45 c4             	cmp    -0x3c(%ebp),%eax
 80493ec:	7c d9                	jl     80493c7 <vsnprintf+0x304>
 80493ee:	eb 12                	jmp    8049402 <vsnprintf+0x33f>
 80493f0:	8b 45 e4             	mov    -0x1c(%ebp),%eax
 80493f3:	3b 45 e0             	cmp    -0x20(%ebp),%eax
 80493f6:	77 06                	ja     80493fe <vsnprintf+0x33b>
 80493f8:	8b 45 e4             	mov    -0x1c(%ebp),%eax
 80493fb:	c6 00 20             	movb   $0x20,(%eax)
 80493fe:	83 45 e4 01          	addl   $0x1,-0x1c(%ebp)
 8049402:	8b 45 d4             	mov    -0x2c(%ebp),%eax
 8049405:	8d 50 ff             	lea    -0x1(%eax),%edx
 8049408:	89 55 d4             	mov    %edx,-0x2c(%ebp)
 804940b:	3b 45 c4             	cmp    -0x3c(%ebp),%eax
 804940e:	7f e0                	jg     80493f0 <vsnprintf+0x32d>
 8049410:	e9 2c 02 00 00       	jmp    8049641 <vsnprintf+0x57e>
 8049415:	83 7d d4 ff          	cmpl   $0xffffffff,-0x2c(%ebp)
 8049419:	75 0b                	jne    8049426 <vsnprintf+0x363>
 804941b:	c7 45 d4 08 00 00 00 	movl   $0x8,-0x2c(%ebp)
 8049422:	83 4d d8 01          	orl    $0x1,-0x28(%ebp)
 8049426:	83 45 14 04          	addl   $0x4,0x14(%ebp)
 804942a:	8b 45 14             	mov    0x14(%ebp),%eax
 804942d:	83 e8 04             	sub    $0x4,%eax
 8049430:	8b 00                	mov    (%eax),%eax
 8049432:	ba 00 00 00 00       	mov    $0x0,%edx
 8049437:	ff 75 d8             	pushl  -0x28(%ebp)
 804943a:	ff 75 d0             	pushl  -0x30(%ebp)
 804943d:	ff 75 d4             	pushl  -0x2c(%ebp)
 8049440:	6a 10                	push   $0x10
 8049442:	52                   	push   %edx
 8049443:	50                   	push   %eax
 8049444:	ff 75 e0             	pushl  -0x20(%ebp)
 8049447:	ff 75 e4             	pushl  -0x1c(%ebp)
 804944a:	e8 aa f9 ff ff       	call   8048df9 <number>
 804944f:	83 c4 20             	add    $0x20,%esp
 8049452:	89 45 e4             	mov    %eax,-0x1c(%ebp)
 8049455:	e9 e7 01 00 00       	jmp    8049641 <vsnprintf+0x57e>
 804945a:	83 7d cc 6c          	cmpl   $0x6c,-0x34(%ebp)
 804945e:	75 1f                	jne    804947f <vsnprintf+0x3bc>
 8049460:	83 45 14 04          	addl   $0x4,0x14(%ebp)
 8049464:	8b 45 14             	mov    0x14(%ebp),%eax
 8049467:	8b 40 fc             	mov    -0x4(%eax),%eax
 804946a:	89 45 c0             	mov    %eax,-0x40(%ebp)
 804946d:	8b 55 e4             	mov    -0x1c(%ebp),%edx
 8049470:	8b 45 08             	mov    0x8(%ebp),%eax
 8049473:	29 c2                	sub    %eax,%edx
 8049475:	8b 45 c0             	mov    -0x40(%ebp),%eax
 8049478:	89 10                	mov    %edx,(%eax)
 804947a:	e9 c2 01 00 00       	jmp    8049641 <vsnprintf+0x57e>
 804947f:	83 7d cc 5a          	cmpl   $0x5a,-0x34(%ebp)
 8049483:	74 06                	je     804948b <vsnprintf+0x3c8>
 8049485:	83 7d cc 7a          	cmpl   $0x7a,-0x34(%ebp)
 8049489:	75 20                	jne    80494ab <vsnprintf+0x3e8>
 804948b:	83 45 14 04          	addl   $0x4,0x14(%ebp)
 804948f:	8b 45 14             	mov    0x14(%ebp),%eax
 8049492:	8b 40 fc             	mov    -0x4(%eax),%eax
 8049495:	89 45 b8             	mov    %eax,-0x48(%ebp)
 8049498:	8b 55 e4             	mov    -0x1c(%ebp),%edx
 804949b:	8b 45 08             	mov    0x8(%ebp),%eax
 804949e:	29 c2                	sub    %eax,%edx
 80494a0:	8b 45 b8             	mov    -0x48(%ebp),%eax
 80494a3:	89 10                	mov    %edx,(%eax)
 80494a5:	90                   	nop
 80494a6:	e9 96 01 00 00       	jmp    8049641 <vsnprintf+0x57e>
 80494ab:	83 45 14 04          	addl   $0x4,0x14(%ebp)
 80494af:	8b 45 14             	mov    0x14(%ebp),%eax
 80494b2:	8b 40 fc             	mov    -0x4(%eax),%eax
 80494b5:	89 45 bc             	mov    %eax,-0x44(%ebp)
 80494b8:	8b 55 e4             	mov    -0x1c(%ebp),%edx
 80494bb:	8b 45 08             	mov    0x8(%ebp),%eax
 80494be:	29 c2                	sub    %eax,%edx
 80494c0:	8b 45 bc             	mov    -0x44(%ebp),%eax
 80494c3:	89 10                	mov    %edx,(%eax)
 80494c5:	e9 77 01 00 00       	jmp    8049641 <vsnprintf+0x57e>
 80494ca:	8b 45 e4             	mov    -0x1c(%ebp),%eax
 80494cd:	3b 45 e0             	cmp    -0x20(%ebp),%eax
 80494d0:	77 06                	ja     80494d8 <vsnprintf+0x415>
 80494d2:	8b 45 e4             	mov    -0x1c(%ebp),%eax
 80494d5:	c6 00 25             	movb   $0x25,(%eax)
 80494d8:	83 45 e4 01          	addl   $0x1,-0x1c(%ebp)
 80494dc:	e9 60 01 00 00       	jmp    8049641 <vsnprintf+0x57e>
 80494e1:	c7 45 e8 08 00 00 00 	movl   $0x8,-0x18(%ebp)
 80494e8:	eb 5a                	jmp    8049544 <vsnprintf+0x481>
 80494ea:	83 4d d8 40          	orl    $0x40,-0x28(%ebp)
 80494ee:	c7 45 e8 10 00 00 00 	movl   $0x10,-0x18(%ebp)
 80494f5:	eb 4d                	jmp    8049544 <vsnprintf+0x481>
 80494f7:	83 4d d8 02          	orl    $0x2,-0x28(%ebp)
 80494fb:	eb 46                	jmp    8049543 <vsnprintf+0x480>
 80494fd:	8b 45 e4             	mov    -0x1c(%ebp),%eax
 8049500:	3b 45 e0             	cmp    -0x20(%ebp),%eax
 8049503:	77 06                	ja     804950b <vsnprintf+0x448>
 8049505:	8b 45 e4             	mov    -0x1c(%ebp),%eax
 8049508:	c6 00 25             	movb   $0x25,(%eax)
 804950b:	83 45 e4 01          	addl   $0x1,-0x1c(%ebp)
 804950f:	8b 45 10             	mov    0x10(%ebp),%eax
 8049512:	0f b6 00             	movzbl (%eax),%eax
 8049515:	84 c0                	test   %al,%al
 8049517:	74 1c                	je     8049535 <vsnprintf+0x472>
 8049519:	8b 45 e4             	mov    -0x1c(%ebp),%eax
 804951c:	3b 45 e0             	cmp    -0x20(%ebp),%eax
 804951f:	77 0b                	ja     804952c <vsnprintf+0x469>
 8049521:	8b 45 10             	mov    0x10(%ebp),%eax
 8049524:	0f b6 10             	movzbl (%eax),%edx
 8049527:	8b 45 e4             	mov    -0x1c(%ebp),%eax
 804952a:	88 10                	mov    %dl,(%eax)
 804952c:	83 45 e4 01          	addl   $0x1,-0x1c(%ebp)
 8049530:	e9 0c 01 00 00       	jmp    8049641 <vsnprintf+0x57e>
 8049535:	8b 45 10             	mov    0x10(%ebp),%eax
 8049538:	83 e8 01             	sub    $0x1,%eax
 804953b:	89 45 10             	mov    %eax,0x10(%ebp)
 804953e:	e9 fe 00 00 00       	jmp    8049641 <vsnprintf+0x57e>
 8049543:	90                   	nop
 8049544:	83 7d cc 4c          	cmpl   $0x4c,-0x34(%ebp)
 8049548:	75 1a                	jne    8049564 <vsnprintf+0x4a1>
 804954a:	83 45 14 08          	addl   $0x8,0x14(%ebp)
 804954e:	8b 45 14             	mov    0x14(%ebp),%eax
 8049551:	83 e8 08             	sub    $0x8,%eax
 8049554:	8b 50 04             	mov    0x4(%eax),%edx
 8049557:	8b 00                	mov    (%eax),%eax
 8049559:	89 45 f0             	mov    %eax,-0x10(%ebp)
 804955c:	89 55 f4             	mov    %edx,-0xc(%ebp)
 804955f:	e9 ba 00 00 00       	jmp    804961e <vsnprintf+0x55b>
 8049564:	83 7d cc 6c          	cmpl   $0x6c,-0x34(%ebp)
 8049568:	75 33                	jne    804959d <vsnprintf+0x4da>
 804956a:	83 45 14 04          	addl   $0x4,0x14(%ebp)
 804956e:	8b 45 14             	mov    0x14(%ebp),%eax
 8049571:	83 e8 04             	sub    $0x4,%eax
 8049574:	8b 00                	mov    (%eax),%eax
 8049576:	89 45 f0             	mov    %eax,-0x10(%ebp)
 8049579:	c7 45 f4 00 00 00 00 	movl   $0x0,-0xc(%ebp)
 8049580:	8b 45 d8             	mov    -0x28(%ebp),%eax
 8049583:	83 e0 02             	and    $0x2,%eax
 8049586:	85 c0                	test   %eax,%eax
 8049588:	0f 84 90 00 00 00    	je     804961e <vsnprintf+0x55b>
 804958e:	8b 45 f0             	mov    -0x10(%ebp),%eax
 8049591:	99                   	cltd   
 8049592:	89 45 f0             	mov    %eax,-0x10(%ebp)
 8049595:	89 55 f4             	mov    %edx,-0xc(%ebp)
 8049598:	e9 81 00 00 00       	jmp    804961e <vsnprintf+0x55b>
 804959d:	83 7d cc 5a          	cmpl   $0x5a,-0x34(%ebp)
 80495a1:	74 06                	je     80495a9 <vsnprintf+0x4e6>
 80495a3:	83 7d cc 7a          	cmpl   $0x7a,-0x34(%ebp)
 80495a7:	75 15                	jne    80495be <vsnprintf+0x4fb>
 80495a9:	83 45 14 04          	addl   $0x4,0x14(%ebp)
 80495ad:	8b 45 14             	mov    0x14(%ebp),%eax
 80495b0:	83 e8 04             	sub    $0x4,%eax
 80495b3:	8b 00                	mov    (%eax),%eax
 80495b5:	99                   	cltd   
 80495b6:	89 45 f0             	mov    %eax,-0x10(%ebp)
 80495b9:	89 55 f4             	mov    %edx,-0xc(%ebp)
 80495bc:	eb 60                	jmp    804961e <vsnprintf+0x55b>
 80495be:	83 7d cc 68          	cmpl   $0x68,-0x34(%ebp)
 80495c2:	75 30                	jne    80495f4 <vsnprintf+0x531>
 80495c4:	83 45 14 04          	addl   $0x4,0x14(%ebp)
 80495c8:	8b 45 14             	mov    0x14(%ebp),%eax
 80495cb:	83 e8 04             	sub    $0x4,%eax
 80495ce:	8b 00                	mov    (%eax),%eax
 80495d0:	0f b7 c0             	movzwl %ax,%eax
 80495d3:	89 45 f0             	mov    %eax,-0x10(%ebp)
 80495d6:	c7 45 f4 00 00 00 00 	movl   $0x0,-0xc(%ebp)
 80495dd:	8b 45 d8             	mov    -0x28(%ebp),%eax
 80495e0:	83 e0 02             	and    $0x2,%eax
 80495e3:	85 c0                	test   %eax,%eax
 80495e5:	74 37                	je     804961e <vsnprintf+0x55b>
 80495e7:	8b 45 f0             	mov    -0x10(%ebp),%eax
 80495ea:	98                   	cwtl   
 80495eb:	99                   	cltd   
 80495ec:	89 45 f0             	mov    %eax,-0x10(%ebp)
 80495ef:	89 55 f4             	mov    %edx,-0xc(%ebp)
 80495f2:	eb 2a                	jmp    804961e <vsnprintf+0x55b>
 80495f4:	83 45 14 04          	addl   $0x4,0x14(%ebp)
 80495f8:	8b 45 14             	mov    0x14(%ebp),%eax
 80495fb:	83 e8 04             	sub    $0x4,%eax
 80495fe:	8b 00                	mov    (%eax),%eax
 8049600:	89 45 f0             	mov    %eax,-0x10(%ebp)
 8049603:	c7 45 f4 00 00 00 00 	movl   $0x0,-0xc(%ebp)
 804960a:	8b 45 d8             	mov    -0x28(%ebp),%eax
 804960d:	83 e0 02             	and    $0x2,%eax
 8049610:	85 c0                	test   %eax,%eax
 8049612:	74 0a                	je     804961e <vsnprintf+0x55b>
 8049614:	8b 45 f0             	mov    -0x10(%ebp),%eax
 8049617:	99                   	cltd   
 8049618:	89 45 f0             	mov    %eax,-0x10(%ebp)
 804961b:	89 55 f4             	mov    %edx,-0xc(%ebp)
 804961e:	ff 75 d8             	pushl  -0x28(%ebp)
 8049621:	ff 75 d0             	pushl  -0x30(%ebp)
 8049624:	ff 75 d4             	pushl  -0x2c(%ebp)
 8049627:	ff 75 e8             	pushl  -0x18(%ebp)
 804962a:	ff 75 f4             	pushl  -0xc(%ebp)
 804962d:	ff 75 f0             	pushl  -0x10(%ebp)
 8049630:	ff 75 e0             	pushl  -0x20(%ebp)
 8049633:	ff 75 e4             	pushl  -0x1c(%ebp)
 8049636:	e8 be f7 ff ff       	call   8048df9 <number>
 804963b:	83 c4 20             	add    $0x20,%esp
 804963e:	89 45 e4             	mov    %eax,-0x1c(%ebp)
 8049641:	8b 45 10             	mov    0x10(%ebp),%eax
 8049644:	83 c0 01             	add    $0x1,%eax
 8049647:	89 45 10             	mov    %eax,0x10(%ebp)
 804964a:	8b 45 10             	mov    0x10(%ebp),%eax
 804964d:	0f b6 00             	movzbl (%eax),%eax
 8049650:	84 c0                	test   %al,%al
 8049652:	0f 85 c7 fa ff ff    	jne    804911f <vsnprintf+0x5c>
 8049658:	8b 45 e4             	mov    -0x1c(%ebp),%eax
 804965b:	3b 45 e0             	cmp    -0x20(%ebp),%eax
 804965e:	77 08                	ja     8049668 <vsnprintf+0x5a5>
 8049660:	8b 45 e4             	mov    -0x1c(%ebp),%eax
 8049663:	c6 00 00             	movb   $0x0,(%eax)
 8049666:	eb 0c                	jmp    8049674 <vsnprintf+0x5b1>
 8049668:	83 7d 0c 00          	cmpl   $0x0,0xc(%ebp)
 804966c:	7e 06                	jle    8049674 <vsnprintf+0x5b1>
 804966e:	8b 45 e0             	mov    -0x20(%ebp),%eax
 8049671:	c6 00 00             	movb   $0x0,(%eax)
 8049674:	8b 55 e4             	mov    -0x1c(%ebp),%edx
 8049677:	8b 45 08             	mov    0x8(%ebp),%eax
 804967a:	29 c2                	sub    %eax,%edx
 804967c:	89 d0                	mov    %edx,%eax
 804967e:	c9                   	leave  
 804967f:	c3                   	ret    

08049680 <vscnprintf>:
 8049680:	55                   	push   %ebp
 8049681:	89 e5                	mov    %esp,%ebp
 8049683:	83 ec 18             	sub    $0x18,%esp
 8049686:	ff 75 14             	pushl  0x14(%ebp)
 8049689:	ff 75 10             	pushl  0x10(%ebp)
 804968c:	ff 75 0c             	pushl  0xc(%ebp)
 804968f:	ff 75 08             	pushl  0x8(%ebp)
 8049692:	e8 2c fa ff ff       	call   80490c3 <vsnprintf>
 8049697:	83 c4 10             	add    $0x10,%esp
 804969a:	89 45 f4             	mov    %eax,-0xc(%ebp)
 804969d:	8b 45 f4             	mov    -0xc(%ebp),%eax
 80496a0:	3b 45 0c             	cmp    0xc(%ebp),%eax
 80496a3:	7c 08                	jl     80496ad <vscnprintf+0x2d>
 80496a5:	8b 45 0c             	mov    0xc(%ebp),%eax
 80496a8:	83 e8 01             	sub    $0x1,%eax
 80496ab:	eb 03                	jmp    80496b0 <vscnprintf+0x30>
 80496ad:	8b 45 f4             	mov    -0xc(%ebp),%eax
 80496b0:	c9                   	leave  
 80496b1:	c3                   	ret    

080496b2 <snprintf>:
 80496b2:	55                   	push   %ebp
 80496b3:	89 e5                	mov    %esp,%ebp
 80496b5:	83 ec 18             	sub    $0x18,%esp
 80496b8:	8d 45 14             	lea    0x14(%ebp),%eax
 80496bb:	89 45 f4             	mov    %eax,-0xc(%ebp)
 80496be:	ff 75 f4             	pushl  -0xc(%ebp)
 80496c1:	ff 75 10             	pushl  0x10(%ebp)
 80496c4:	ff 75 0c             	pushl  0xc(%ebp)
 80496c7:	ff 75 08             	pushl  0x8(%ebp)
 80496ca:	e8 f4 f9 ff ff       	call   80490c3 <vsnprintf>
 80496cf:	83 c4 10             	add    $0x10,%esp
 80496d2:	89 45 f0             	mov    %eax,-0x10(%ebp)
 80496d5:	8b 45 f0             	mov    -0x10(%ebp),%eax
 80496d8:	c9                   	leave  
 80496d9:	c3                   	ret    

080496da <scnprintf>:
 80496da:	55                   	push   %ebp
 80496db:	89 e5                	mov    %esp,%ebp
 80496dd:	83 ec 18             	sub    $0x18,%esp
 80496e0:	8d 45 14             	lea    0x14(%ebp),%eax
 80496e3:	89 45 f4             	mov    %eax,-0xc(%ebp)
 80496e6:	ff 75 f4             	pushl  -0xc(%ebp)
 80496e9:	ff 75 10             	pushl  0x10(%ebp)
 80496ec:	ff 75 0c             	pushl  0xc(%ebp)
 80496ef:	ff 75 08             	pushl  0x8(%ebp)
 80496f2:	e8 cc f9 ff ff       	call   80490c3 <vsnprintf>
 80496f7:	83 c4 10             	add    $0x10,%esp
 80496fa:	89 45 f0             	mov    %eax,-0x10(%ebp)
 80496fd:	8b 45 f0             	mov    -0x10(%ebp),%eax
 8049700:	3b 45 0c             	cmp    0xc(%ebp),%eax
 8049703:	7c 08                	jl     804970d <scnprintf+0x33>
 8049705:	8b 45 0c             	mov    0xc(%ebp),%eax
 8049708:	83 e8 01             	sub    $0x1,%eax
 804970b:	eb 03                	jmp    8049710 <scnprintf+0x36>
 804970d:	8b 45 f0             	mov    -0x10(%ebp),%eax
 8049710:	c9                   	leave  
 8049711:	c3                   	ret    

08049712 <vsprintf>:
 8049712:	55                   	push   %ebp
 8049713:	89 e5                	mov    %esp,%ebp
 8049715:	83 ec 08             	sub    $0x8,%esp
 8049718:	ff 75 10             	pushl  0x10(%ebp)
 804971b:	ff 75 0c             	pushl  0xc(%ebp)
 804971e:	68 00 04 00 00       	push   $0x400
 8049723:	ff 75 08             	pushl  0x8(%ebp)
 8049726:	e8 98 f9 ff ff       	call   80490c3 <vsnprintf>
 804972b:	83 c4 10             	add    $0x10,%esp
 804972e:	c9                   	leave  
 804972f:	c3                   	ret    

08049730 <sprintf>:
 8049730:	55                   	push   %ebp
 8049731:	89 e5                	mov    %esp,%ebp
 8049733:	83 ec 18             	sub    $0x18,%esp
 8049736:	8d 45 10             	lea    0x10(%ebp),%eax
 8049739:	89 45 f4             	mov    %eax,-0xc(%ebp)
 804973c:	83 ec 04             	sub    $0x4,%esp
 804973f:	ff 75 f4             	pushl  -0xc(%ebp)
 8049742:	ff 75 0c             	pushl  0xc(%ebp)
 8049745:	ff 75 08             	pushl  0x8(%ebp)
 8049748:	e8 c5 ff ff ff       	call   8049712 <vsprintf>
 804974d:	83 c4 10             	add    $0x10,%esp
 8049750:	89 45 f0             	mov    %eax,-0x10(%ebp)
 8049753:	8b 45 f0             	mov    -0x10(%ebp),%eax
 8049756:	c9                   	leave  
 8049757:	c3                   	ret    

08049758 <vsscanf>:
 8049758:	55                   	push   %ebp
 8049759:	89 e5                	mov    %esp,%ebp
 804975b:	83 ec 60             	sub    $0x60,%esp
 804975e:	8b 45 08             	mov    0x8(%ebp),%eax
 8049761:	89 45 fc             	mov    %eax,-0x4(%ebp)
 8049764:	c7 45 f4 00 00 00 00 	movl   $0x0,-0xc(%ebp)
 804976b:	c7 45 e4 00 00 00 00 	movl   $0x0,-0x1c(%ebp)
 8049772:	e9 76 06 00 00       	jmp    8049ded <vsscanf+0x695>
 8049777:	8b 45 0c             	mov    0xc(%ebp),%eax
 804977a:	0f b6 00             	movzbl (%eax),%eax
 804977d:	0f b6 c0             	movzbl %al,%eax
 8049780:	0f b6 80 00 c0 04 08 	movzbl 0x804c000(%eax),%eax
 8049787:	0f b6 c0             	movzbl %al,%eax
 804978a:	83 e0 20             	and    $0x20,%eax
 804978d:	85 c0                	test   %eax,%eax
 804978f:	74 45                	je     80497d6 <vsscanf+0x7e>
 8049791:	eb 09                	jmp    804979c <vsscanf+0x44>
 8049793:	8b 45 0c             	mov    0xc(%ebp),%eax
 8049796:	83 c0 01             	add    $0x1,%eax
 8049799:	89 45 0c             	mov    %eax,0xc(%ebp)
 804979c:	8b 45 0c             	mov    0xc(%ebp),%eax
 804979f:	0f b6 00             	movzbl (%eax),%eax
 80497a2:	0f b6 c0             	movzbl %al,%eax
 80497a5:	0f b6 80 00 c0 04 08 	movzbl 0x804c000(%eax),%eax
 80497ac:	0f b6 c0             	movzbl %al,%eax
 80497af:	83 e0 20             	and    $0x20,%eax
 80497b2:	85 c0                	test   %eax,%eax
 80497b4:	75 dd                	jne    8049793 <vsscanf+0x3b>
 80497b6:	eb 04                	jmp    80497bc <vsscanf+0x64>
 80497b8:	83 45 fc 01          	addl   $0x1,-0x4(%ebp)
 80497bc:	8b 45 fc             	mov    -0x4(%ebp),%eax
 80497bf:	0f b6 00             	movzbl (%eax),%eax
 80497c2:	0f b6 c0             	movzbl %al,%eax
 80497c5:	0f b6 80 00 c0 04 08 	movzbl 0x804c000(%eax),%eax
 80497cc:	0f b6 c0             	movzbl %al,%eax
 80497cf:	83 e0 20             	and    $0x20,%eax
 80497d2:	85 c0                	test   %eax,%eax
 80497d4:	75 e2                	jne    80497b8 <vsscanf+0x60>
 80497d6:	8b 45 0c             	mov    0xc(%ebp),%eax
 80497d9:	0f b6 00             	movzbl (%eax),%eax
 80497dc:	3c 25                	cmp    $0x25,%al
 80497de:	74 2f                	je     804980f <vsscanf+0xb7>
 80497e0:	8b 45 0c             	mov    0xc(%ebp),%eax
 80497e3:	0f b6 00             	movzbl (%eax),%eax
 80497e6:	84 c0                	test   %al,%al
 80497e8:	74 25                	je     804980f <vsscanf+0xb7>
 80497ea:	8b 45 0c             	mov    0xc(%ebp),%eax
 80497ed:	8d 50 01             	lea    0x1(%eax),%edx
 80497f0:	89 55 0c             	mov    %edx,0xc(%ebp)
 80497f3:	0f b6 08             	movzbl (%eax),%ecx
 80497f6:	8b 45 fc             	mov    -0x4(%ebp),%eax
 80497f9:	8d 50 01             	lea    0x1(%eax),%edx
 80497fc:	89 55 fc             	mov    %edx,-0x4(%ebp)
 80497ff:	0f b6 00             	movzbl (%eax),%eax
 8049802:	38 c1                	cmp    %al,%cl
 8049804:	0f 85 fd 05 00 00    	jne    8049e07 <vsscanf+0x6af>
 804980a:	e9 de 05 00 00       	jmp    8049ded <vsscanf+0x695>
 804980f:	8b 45 0c             	mov    0xc(%ebp),%eax
 8049812:	0f b6 00             	movzbl (%eax),%eax
 8049815:	84 c0                	test   %al,%al
 8049817:	0f 84 ed 05 00 00    	je     8049e0a <vsscanf+0x6b2>
 804981d:	8b 45 0c             	mov    0xc(%ebp),%eax
 8049820:	83 c0 01             	add    $0x1,%eax
 8049823:	89 45 0c             	mov    %eax,0xc(%ebp)
 8049826:	8b 45 0c             	mov    0xc(%ebp),%eax
 8049829:	0f b6 00             	movzbl (%eax),%eax
 804982c:	3c 2a                	cmp    $0x2a,%al
 804982e:	75 62                	jne    8049892 <vsscanf+0x13a>
 8049830:	eb 09                	jmp    804983b <vsscanf+0xe3>
 8049832:	8b 45 0c             	mov    0xc(%ebp),%eax
 8049835:	83 c0 01             	add    $0x1,%eax
 8049838:	89 45 0c             	mov    %eax,0xc(%ebp)
 804983b:	8b 45 0c             	mov    0xc(%ebp),%eax
 804983e:	0f b6 00             	movzbl (%eax),%eax
 8049841:	0f b6 c0             	movzbl %al,%eax
 8049844:	0f b6 80 00 c0 04 08 	movzbl 0x804c000(%eax),%eax
 804984b:	0f b6 c0             	movzbl %al,%eax
 804984e:	83 e0 20             	and    $0x20,%eax
 8049851:	85 c0                	test   %eax,%eax
 8049853:	75 10                	jne    8049865 <vsscanf+0x10d>
 8049855:	8b 45 0c             	mov    0xc(%ebp),%eax
 8049858:	0f b6 00             	movzbl (%eax),%eax
 804985b:	84 c0                	test   %al,%al
 804985d:	75 d3                	jne    8049832 <vsscanf+0xda>
 804985f:	eb 04                	jmp    8049865 <vsscanf+0x10d>
 8049861:	83 45 fc 01          	addl   $0x1,-0x4(%ebp)
 8049865:	8b 45 fc             	mov    -0x4(%ebp),%eax
 8049868:	0f b6 00             	movzbl (%eax),%eax
 804986b:	0f b6 c0             	movzbl %al,%eax
 804986e:	0f b6 80 00 c0 04 08 	movzbl 0x804c000(%eax),%eax
 8049875:	0f b6 c0             	movzbl %al,%eax
 8049878:	83 e0 20             	and    $0x20,%eax
 804987b:	85 c0                	test   %eax,%eax
 804987d:	0f 85 6a 05 00 00    	jne    8049ded <vsscanf+0x695>
 8049883:	8b 45 fc             	mov    -0x4(%ebp),%eax
 8049886:	0f b6 00             	movzbl (%eax),%eax
 8049889:	84 c0                	test   %al,%al
 804988b:	75 d4                	jne    8049861 <vsscanf+0x109>
 804988d:	e9 5b 05 00 00       	jmp    8049ded <vsscanf+0x695>
 8049892:	c7 45 e8 ff ff ff ff 	movl   $0xffffffff,-0x18(%ebp)
 8049899:	8b 45 0c             	mov    0xc(%ebp),%eax
 804989c:	0f b6 00             	movzbl (%eax),%eax
 804989f:	0f b6 c0             	movzbl %al,%eax
 80498a2:	0f b6 80 00 c0 04 08 	movzbl 0x804c000(%eax),%eax
 80498a9:	0f b6 c0             	movzbl %al,%eax
 80498ac:	83 e0 04             	and    $0x4,%eax
 80498af:	85 c0                	test   %eax,%eax
 80498b1:	74 0f                	je     80498c2 <vsscanf+0x16a>
 80498b3:	8d 45 0c             	lea    0xc(%ebp),%eax
 80498b6:	50                   	push   %eax
 80498b7:	e8 df f4 ff ff       	call   8048d9b <skip_atoi>
 80498bc:	83 c4 04             	add    $0x4,%esp
 80498bf:	89 45 e8             	mov    %eax,-0x18(%ebp)
 80498c2:	c7 45 f0 ff ff ff ff 	movl   $0xffffffff,-0x10(%ebp)
 80498c9:	8b 45 0c             	mov    0xc(%ebp),%eax
 80498cc:	0f b6 00             	movzbl (%eax),%eax
 80498cf:	3c 68                	cmp    $0x68,%al
 80498d1:	74 28                	je     80498fb <vsscanf+0x1a3>
 80498d3:	8b 45 0c             	mov    0xc(%ebp),%eax
 80498d6:	0f b6 00             	movzbl (%eax),%eax
 80498d9:	3c 6c                	cmp    $0x6c,%al
 80498db:	74 1e                	je     80498fb <vsscanf+0x1a3>
 80498dd:	8b 45 0c             	mov    0xc(%ebp),%eax
 80498e0:	0f b6 00             	movzbl (%eax),%eax
 80498e3:	3c 4c                	cmp    $0x4c,%al
 80498e5:	74 14                	je     80498fb <vsscanf+0x1a3>
 80498e7:	8b 45 0c             	mov    0xc(%ebp),%eax
 80498ea:	0f b6 00             	movzbl (%eax),%eax
 80498ed:	3c 5a                	cmp    $0x5a,%al
 80498ef:	74 0a                	je     80498fb <vsscanf+0x1a3>
 80498f1:	8b 45 0c             	mov    0xc(%ebp),%eax
 80498f4:	0f b6 00             	movzbl (%eax),%eax
 80498f7:	3c 7a                	cmp    $0x7a,%al
 80498f9:	75 4e                	jne    8049949 <vsscanf+0x1f1>
 80498fb:	8b 45 0c             	mov    0xc(%ebp),%eax
 80498fe:	8d 50 01             	lea    0x1(%eax),%edx
 8049901:	89 55 0c             	mov    %edx,0xc(%ebp)
 8049904:	0f b6 00             	movzbl (%eax),%eax
 8049907:	0f be c0             	movsbl %al,%eax
 804990a:	89 45 f0             	mov    %eax,-0x10(%ebp)
 804990d:	8b 45 0c             	mov    0xc(%ebp),%eax
 8049910:	0f b6 00             	movzbl (%eax),%eax
 8049913:	0f be c0             	movsbl %al,%eax
 8049916:	3b 45 f0             	cmp    -0x10(%ebp),%eax
 8049919:	75 2e                	jne    8049949 <vsscanf+0x1f1>
 804991b:	83 7d f0 68          	cmpl   $0x68,-0x10(%ebp)
 804991f:	75 12                	jne    8049933 <vsscanf+0x1db>
 8049921:	c7 45 f0 48 00 00 00 	movl   $0x48,-0x10(%ebp)
 8049928:	8b 45 0c             	mov    0xc(%ebp),%eax
 804992b:	83 c0 01             	add    $0x1,%eax
 804992e:	89 45 0c             	mov    %eax,0xc(%ebp)
 8049931:	eb 16                	jmp    8049949 <vsscanf+0x1f1>
 8049933:	83 7d f0 6c          	cmpl   $0x6c,-0x10(%ebp)
 8049937:	75 10                	jne    8049949 <vsscanf+0x1f1>
 8049939:	c7 45 f0 4c 00 00 00 	movl   $0x4c,-0x10(%ebp)
 8049940:	8b 45 0c             	mov    0xc(%ebp),%eax
 8049943:	83 c0 01             	add    $0x1,%eax
 8049946:	89 45 0c             	mov    %eax,0xc(%ebp)
 8049949:	c7 45 ec 0a 00 00 00 	movl   $0xa,-0x14(%ebp)
 8049950:	c7 45 e4 00 00 00 00 	movl   $0x0,-0x1c(%ebp)
 8049957:	8b 45 0c             	mov    0xc(%ebp),%eax
 804995a:	0f b6 00             	movzbl (%eax),%eax
 804995d:	84 c0                	test   %al,%al
 804995f:	0f 84 a9 04 00 00    	je     8049e0e <vsscanf+0x6b6>
 8049965:	8b 45 fc             	mov    -0x4(%ebp),%eax
 8049968:	0f b6 00             	movzbl (%eax),%eax
 804996b:	84 c0                	test   %al,%al
 804996d:	0f 84 9b 04 00 00    	je     8049e0e <vsscanf+0x6b6>
 8049973:	8b 45 0c             	mov    0xc(%ebp),%eax
 8049976:	8d 50 01             	lea    0x1(%eax),%edx
 8049979:	89 55 0c             	mov    %edx,0xc(%ebp)
 804997c:	0f b6 00             	movzbl (%eax),%eax
 804997f:	0f be c0             	movsbl %al,%eax
 8049982:	83 e8 25             	sub    $0x25,%eax
 8049985:	83 f8 53             	cmp    $0x53,%eax
 8049988:	0f 87 47 01 00 00    	ja     8049ad5 <vsscanf+0x37d>
 804998e:	8b 04 85 1c a1 04 08 	mov    0x804a11c(,%eax,4),%eax
 8049995:	ff e0                	jmp    *%eax
 8049997:	83 45 10 04          	addl   $0x4,0x10(%ebp)
 804999b:	8b 45 10             	mov    0x10(%ebp),%eax
 804999e:	8b 40 fc             	mov    -0x4(%eax),%eax
 80499a1:	89 45 e0             	mov    %eax,-0x20(%ebp)
 80499a4:	83 7d e8 ff          	cmpl   $0xffffffff,-0x18(%ebp)
 80499a8:	75 07                	jne    80499b1 <vsscanf+0x259>
 80499aa:	c7 45 e8 01 00 00 00 	movl   $0x1,-0x18(%ebp)
 80499b1:	8b 45 e0             	mov    -0x20(%ebp),%eax
 80499b4:	8d 50 01             	lea    0x1(%eax),%edx
 80499b7:	89 55 e0             	mov    %edx,-0x20(%ebp)
 80499ba:	8b 55 fc             	mov    -0x4(%ebp),%edx
 80499bd:	8d 4a 01             	lea    0x1(%edx),%ecx
 80499c0:	89 4d fc             	mov    %ecx,-0x4(%ebp)
 80499c3:	0f b6 12             	movzbl (%edx),%edx
 80499c6:	88 10                	mov    %dl,(%eax)
 80499c8:	83 6d e8 01          	subl   $0x1,-0x18(%ebp)
 80499cc:	83 7d e8 00          	cmpl   $0x0,-0x18(%ebp)
 80499d0:	7e 0a                	jle    80499dc <vsscanf+0x284>
 80499d2:	8b 45 fc             	mov    -0x4(%ebp),%eax
 80499d5:	0f b6 00             	movzbl (%eax),%eax
 80499d8:	84 c0                	test   %al,%al
 80499da:	75 d5                	jne    80499b1 <vsscanf+0x259>
 80499dc:	83 45 f4 01          	addl   $0x1,-0xc(%ebp)
 80499e0:	e9 08 04 00 00       	jmp    8049ded <vsscanf+0x695>
 80499e5:	83 45 10 04          	addl   $0x4,0x10(%ebp)
 80499e9:	8b 45 10             	mov    0x10(%ebp),%eax
 80499ec:	8b 40 fc             	mov    -0x4(%eax),%eax
 80499ef:	89 45 dc             	mov    %eax,-0x24(%ebp)
 80499f2:	83 7d e8 ff          	cmpl   $0xffffffff,-0x18(%ebp)
 80499f6:	75 0d                	jne    8049a05 <vsscanf+0x2ad>
 80499f8:	c7 45 e8 ff ff ff 7f 	movl   $0x7fffffff,-0x18(%ebp)
 80499ff:	eb 04                	jmp    8049a05 <vsscanf+0x2ad>
 8049a01:	83 45 fc 01          	addl   $0x1,-0x4(%ebp)
 8049a05:	8b 45 fc             	mov    -0x4(%ebp),%eax
 8049a08:	0f b6 00             	movzbl (%eax),%eax
 8049a0b:	0f b6 c0             	movzbl %al,%eax
 8049a0e:	0f b6 80 00 c0 04 08 	movzbl 0x804c000(%eax),%eax
 8049a15:	0f b6 c0             	movzbl %al,%eax
 8049a18:	83 e0 20             	and    $0x20,%eax
 8049a1b:	85 c0                	test   %eax,%eax
 8049a1d:	75 e2                	jne    8049a01 <vsscanf+0x2a9>
 8049a1f:	eb 17                	jmp    8049a38 <vsscanf+0x2e0>
 8049a21:	8b 45 dc             	mov    -0x24(%ebp),%eax
 8049a24:	8d 50 01             	lea    0x1(%eax),%edx
 8049a27:	89 55 dc             	mov    %edx,-0x24(%ebp)
 8049a2a:	8b 55 fc             	mov    -0x4(%ebp),%edx
 8049a2d:	8d 4a 01             	lea    0x1(%edx),%ecx
 8049a30:	89 4d fc             	mov    %ecx,-0x4(%ebp)
 8049a33:	0f b6 12             	movzbl (%edx),%edx
 8049a36:	88 10                	mov    %dl,(%eax)
 8049a38:	8b 45 fc             	mov    -0x4(%ebp),%eax
 8049a3b:	0f b6 00             	movzbl (%eax),%eax
 8049a3e:	84 c0                	test   %al,%al
 8049a40:	74 27                	je     8049a69 <vsscanf+0x311>
 8049a42:	8b 45 fc             	mov    -0x4(%ebp),%eax
 8049a45:	0f b6 00             	movzbl (%eax),%eax
 8049a48:	0f b6 c0             	movzbl %al,%eax
 8049a4b:	0f b6 80 00 c0 04 08 	movzbl 0x804c000(%eax),%eax
 8049a52:	0f b6 c0             	movzbl %al,%eax
 8049a55:	83 e0 20             	and    $0x20,%eax
 8049a58:	85 c0                	test   %eax,%eax
 8049a5a:	75 0d                	jne    8049a69 <vsscanf+0x311>
 8049a5c:	8b 45 e8             	mov    -0x18(%ebp),%eax
 8049a5f:	8d 50 ff             	lea    -0x1(%eax),%edx
 8049a62:	89 55 e8             	mov    %edx,-0x18(%ebp)
 8049a65:	85 c0                	test   %eax,%eax
 8049a67:	75 b8                	jne    8049a21 <vsscanf+0x2c9>
 8049a69:	8b 45 dc             	mov    -0x24(%ebp),%eax
 8049a6c:	c6 00 00             	movb   $0x0,(%eax)
 8049a6f:	83 45 f4 01          	addl   $0x1,-0xc(%ebp)
 8049a73:	e9 75 03 00 00       	jmp    8049ded <vsscanf+0x695>
 8049a78:	83 45 10 04          	addl   $0x4,0x10(%ebp)
 8049a7c:	8b 45 10             	mov    0x10(%ebp),%eax
 8049a7f:	8b 40 fc             	mov    -0x4(%eax),%eax
 8049a82:	89 45 d8             	mov    %eax,-0x28(%ebp)
 8049a85:	8b 55 fc             	mov    -0x4(%ebp),%edx
 8049a88:	8b 45 08             	mov    0x8(%ebp),%eax
 8049a8b:	29 c2                	sub    %eax,%edx
 8049a8d:	8b 45 d8             	mov    -0x28(%ebp),%eax
 8049a90:	89 10                	mov    %edx,(%eax)
 8049a92:	e9 56 03 00 00       	jmp    8049ded <vsscanf+0x695>
 8049a97:	c7 45 ec 08 00 00 00 	movl   $0x8,-0x14(%ebp)
 8049a9e:	eb 3e                	jmp    8049ade <vsscanf+0x386>
 8049aa0:	c7 45 ec 10 00 00 00 	movl   $0x10,-0x14(%ebp)
 8049aa7:	eb 35                	jmp    8049ade <vsscanf+0x386>
 8049aa9:	c7 45 ec 00 00 00 00 	movl   $0x0,-0x14(%ebp)
 8049ab0:	c7 45 e4 01 00 00 00 	movl   $0x1,-0x1c(%ebp)
 8049ab7:	eb 24                	jmp    8049add <vsscanf+0x385>
 8049ab9:	8b 45 fc             	mov    -0x4(%ebp),%eax
 8049abc:	8d 50 01             	lea    0x1(%eax),%edx
 8049abf:	89 55 fc             	mov    %edx,-0x4(%ebp)
 8049ac2:	0f b6 00             	movzbl (%eax),%eax
 8049ac5:	3c 25                	cmp    $0x25,%al
 8049ac7:	0f 84 20 03 00 00    	je     8049ded <vsscanf+0x695>
 8049acd:	8b 45 f4             	mov    -0xc(%ebp),%eax
 8049ad0:	e9 3c 03 00 00       	jmp    8049e11 <vsscanf+0x6b9>
 8049ad5:	8b 45 f4             	mov    -0xc(%ebp),%eax
 8049ad8:	e9 34 03 00 00       	jmp    8049e11 <vsscanf+0x6b9>
 8049add:	90                   	nop
 8049ade:	eb 04                	jmp    8049ae4 <vsscanf+0x38c>
 8049ae0:	83 45 fc 01          	addl   $0x1,-0x4(%ebp)
 8049ae4:	8b 45 fc             	mov    -0x4(%ebp),%eax
 8049ae7:	0f b6 00             	movzbl (%eax),%eax
 8049aea:	0f b6 c0             	movzbl %al,%eax
 8049aed:	0f b6 80 00 c0 04 08 	movzbl 0x804c000(%eax),%eax
 8049af4:	0f b6 c0             	movzbl %al,%eax
 8049af7:	83 e0 20             	and    $0x20,%eax
 8049afa:	85 c0                	test   %eax,%eax
 8049afc:	75 e2                	jne    8049ae0 <vsscanf+0x388>
 8049afe:	8b 45 fc             	mov    -0x4(%ebp),%eax
 8049b01:	0f b6 00             	movzbl (%eax),%eax
 8049b04:	88 45 fb             	mov    %al,-0x5(%ebp)
 8049b07:	83 7d e4 00          	cmpl   $0x0,-0x1c(%ebp)
 8049b0b:	74 10                	je     8049b1d <vsscanf+0x3c5>
 8049b0d:	80 7d fb 2d          	cmpb   $0x2d,-0x5(%ebp)
 8049b11:	75 0a                	jne    8049b1d <vsscanf+0x3c5>
 8049b13:	8b 45 fc             	mov    -0x4(%ebp),%eax
 8049b16:	0f b6 40 01          	movzbl 0x1(%eax),%eax
 8049b1a:	88 45 fb             	mov    %al,-0x5(%ebp)
 8049b1d:	80 7d fb 00          	cmpb   $0x0,-0x5(%ebp)
 8049b21:	0f 84 e7 02 00 00    	je     8049e0e <vsscanf+0x6b6>
 8049b27:	83 7d ec 10          	cmpl   $0x10,-0x14(%ebp)
 8049b2b:	75 1c                	jne    8049b49 <vsscanf+0x3f1>
 8049b2d:	0f b6 45 fb          	movzbl -0x5(%ebp),%eax
 8049b31:	0f b6 c0             	movzbl %al,%eax
 8049b34:	0f b6 80 00 c0 04 08 	movzbl 0x804c000(%eax),%eax
 8049b3b:	0f b6 c0             	movzbl %al,%eax
 8049b3e:	83 e0 44             	and    $0x44,%eax
 8049b41:	85 c0                	test   %eax,%eax
 8049b43:	0f 84 c5 02 00 00    	je     8049e0e <vsscanf+0x6b6>
 8049b49:	83 7d ec 0a          	cmpl   $0xa,-0x14(%ebp)
 8049b4d:	75 1c                	jne    8049b6b <vsscanf+0x413>
 8049b4f:	0f b6 45 fb          	movzbl -0x5(%ebp),%eax
 8049b53:	0f b6 c0             	movzbl %al,%eax
 8049b56:	0f b6 80 00 c0 04 08 	movzbl 0x804c000(%eax),%eax
 8049b5d:	0f b6 c0             	movzbl %al,%eax
 8049b60:	83 e0 04             	and    $0x4,%eax
 8049b63:	85 c0                	test   %eax,%eax
 8049b65:	0f 84 a3 02 00 00    	je     8049e0e <vsscanf+0x6b6>
 8049b6b:	83 7d ec 08          	cmpl   $0x8,-0x14(%ebp)
 8049b6f:	75 26                	jne    8049b97 <vsscanf+0x43f>
 8049b71:	0f b6 45 fb          	movzbl -0x5(%ebp),%eax
 8049b75:	0f b6 c0             	movzbl %al,%eax
 8049b78:	0f b6 80 00 c0 04 08 	movzbl 0x804c000(%eax),%eax
 8049b7f:	0f b6 c0             	movzbl %al,%eax
 8049b82:	83 e0 04             	and    $0x4,%eax
 8049b85:	85 c0                	test   %eax,%eax
 8049b87:	0f 84 81 02 00 00    	je     8049e0e <vsscanf+0x6b6>
 8049b8d:	80 7d fb 37          	cmpb   $0x37,-0x5(%ebp)
 8049b91:	0f 8f 77 02 00 00    	jg     8049e0e <vsscanf+0x6b6>
 8049b97:	83 7d ec 00          	cmpl   $0x0,-0x14(%ebp)
 8049b9b:	75 1c                	jne    8049bb9 <vsscanf+0x461>
 8049b9d:	0f b6 45 fb          	movzbl -0x5(%ebp),%eax
 8049ba1:	0f b6 c0             	movzbl %al,%eax
 8049ba4:	0f b6 80 00 c0 04 08 	movzbl 0x804c000(%eax),%eax
 8049bab:	0f b6 c0             	movzbl %al,%eax
 8049bae:	83 e0 04             	and    $0x4,%eax
 8049bb1:	85 c0                	test   %eax,%eax
 8049bb3:	0f 84 55 02 00 00    	je     8049e0e <vsscanf+0x6b6>
 8049bb9:	8b 45 f0             	mov    -0x10(%ebp),%eax
 8049bbc:	83 e8 48             	sub    $0x48,%eax
 8049bbf:	83 f8 32             	cmp    $0x32,%eax
 8049bc2:	0f 87 b7 01 00 00    	ja     8049d7f <vsscanf+0x627>
 8049bc8:	8b 04 85 6c a2 04 08 	mov    0x804a26c(,%eax,4),%eax
 8049bcf:	ff e0                	jmp    *%eax
 8049bd1:	83 7d e4 00          	cmpl   $0x0,-0x1c(%ebp)
 8049bd5:	74 2c                	je     8049c03 <vsscanf+0x4ab>
 8049bd7:	83 45 10 04          	addl   $0x4,0x10(%ebp)
 8049bdb:	8b 45 10             	mov    0x10(%ebp),%eax
 8049bde:	8b 40 fc             	mov    -0x4(%eax),%eax
 8049be1:	89 45 d4             	mov    %eax,-0x2c(%ebp)
 8049be4:	8b 45 ec             	mov    -0x14(%ebp),%eax
 8049be7:	50                   	push   %eax
 8049be8:	8d 45 a8             	lea    -0x58(%ebp),%eax
 8049beb:	50                   	push   %eax
 8049bec:	ff 75 fc             	pushl  -0x4(%ebp)
 8049bef:	e8 84 ef ff ff       	call   8048b78 <simple_strtol>
 8049bf4:	83 c4 0c             	add    $0xc,%esp
 8049bf7:	89 c2                	mov    %eax,%edx
 8049bf9:	8b 45 d4             	mov    -0x2c(%ebp),%eax
 8049bfc:	88 10                	mov    %dl,(%eax)
 8049bfe:	e9 d9 01 00 00       	jmp    8049ddc <vsscanf+0x684>
 8049c03:	83 45 10 04          	addl   $0x4,0x10(%ebp)
 8049c07:	8b 45 10             	mov    0x10(%ebp),%eax
 8049c0a:	8b 40 fc             	mov    -0x4(%eax),%eax
 8049c0d:	89 45 d0             	mov    %eax,-0x30(%ebp)
 8049c10:	8b 45 ec             	mov    -0x14(%ebp),%eax
 8049c13:	50                   	push   %eax
 8049c14:	8d 45 a8             	lea    -0x58(%ebp),%eax
 8049c17:	50                   	push   %eax
 8049c18:	ff 75 fc             	pushl  -0x4(%ebp)
 8049c1b:	e8 29 ee ff ff       	call   8048a49 <simple_strtoul>
 8049c20:	83 c4 0c             	add    $0xc,%esp
 8049c23:	89 c2                	mov    %eax,%edx
 8049c25:	8b 45 d0             	mov    -0x30(%ebp),%eax
 8049c28:	88 10                	mov    %dl,(%eax)
 8049c2a:	e9 ad 01 00 00       	jmp    8049ddc <vsscanf+0x684>
 8049c2f:	83 7d e4 00          	cmpl   $0x0,-0x1c(%ebp)
 8049c33:	74 2d                	je     8049c62 <vsscanf+0x50a>
 8049c35:	83 45 10 04          	addl   $0x4,0x10(%ebp)
 8049c39:	8b 45 10             	mov    0x10(%ebp),%eax
 8049c3c:	8b 40 fc             	mov    -0x4(%eax),%eax
 8049c3f:	89 45 cc             	mov    %eax,-0x34(%ebp)
 8049c42:	8b 45 ec             	mov    -0x14(%ebp),%eax
 8049c45:	50                   	push   %eax
 8049c46:	8d 45 a8             	lea    -0x58(%ebp),%eax
 8049c49:	50                   	push   %eax
 8049c4a:	ff 75 fc             	pushl  -0x4(%ebp)
 8049c4d:	e8 26 ef ff ff       	call   8048b78 <simple_strtol>
 8049c52:	83 c4 0c             	add    $0xc,%esp
 8049c55:	89 c2                	mov    %eax,%edx
 8049c57:	8b 45 cc             	mov    -0x34(%ebp),%eax
 8049c5a:	66 89 10             	mov    %dx,(%eax)
 8049c5d:	e9 7a 01 00 00       	jmp    8049ddc <vsscanf+0x684>
 8049c62:	83 45 10 04          	addl   $0x4,0x10(%ebp)
 8049c66:	8b 45 10             	mov    0x10(%ebp),%eax
 8049c69:	8b 40 fc             	mov    -0x4(%eax),%eax
 8049c6c:	89 45 c8             	mov    %eax,-0x38(%ebp)
 8049c6f:	8b 45 ec             	mov    -0x14(%ebp),%eax
 8049c72:	50                   	push   %eax
 8049c73:	8d 45 a8             	lea    -0x58(%ebp),%eax
 8049c76:	50                   	push   %eax
 8049c77:	ff 75 fc             	pushl  -0x4(%ebp)
 8049c7a:	e8 ca ed ff ff       	call   8048a49 <simple_strtoul>
 8049c7f:	83 c4 0c             	add    $0xc,%esp
 8049c82:	89 c2                	mov    %eax,%edx
 8049c84:	8b 45 c8             	mov    -0x38(%ebp),%eax
 8049c87:	66 89 10             	mov    %dx,(%eax)
 8049c8a:	e9 4d 01 00 00       	jmp    8049ddc <vsscanf+0x684>
 8049c8f:	83 7d e4 00          	cmpl   $0x0,-0x1c(%ebp)
 8049c93:	74 2c                	je     8049cc1 <vsscanf+0x569>
 8049c95:	83 45 10 04          	addl   $0x4,0x10(%ebp)
 8049c99:	8b 45 10             	mov    0x10(%ebp),%eax
 8049c9c:	8b 40 fc             	mov    -0x4(%eax),%eax
 8049c9f:	89 45 c4             	mov    %eax,-0x3c(%ebp)
 8049ca2:	8b 45 ec             	mov    -0x14(%ebp),%eax
 8049ca5:	50                   	push   %eax
 8049ca6:	8d 45 a8             	lea    -0x58(%ebp),%eax
 8049ca9:	50                   	push   %eax
 8049caa:	ff 75 fc             	pushl  -0x4(%ebp)
 8049cad:	e8 c6 ee ff ff       	call   8048b78 <simple_strtol>
 8049cb2:	83 c4 0c             	add    $0xc,%esp
 8049cb5:	89 c2                	mov    %eax,%edx
 8049cb7:	8b 45 c4             	mov    -0x3c(%ebp),%eax
 8049cba:	89 10                	mov    %edx,(%eax)
 8049cbc:	e9 1b 01 00 00       	jmp    8049ddc <vsscanf+0x684>
 8049cc1:	83 45 10 04          	addl   $0x4,0x10(%ebp)
 8049cc5:	8b 45 10             	mov    0x10(%ebp),%eax
 8049cc8:	8b 40 fc             	mov    -0x4(%eax),%eax
 8049ccb:	89 45 c0             	mov    %eax,-0x40(%ebp)
 8049cce:	8b 45 ec             	mov    -0x14(%ebp),%eax
 8049cd1:	50                   	push   %eax
 8049cd2:	8d 45 a8             	lea    -0x58(%ebp),%eax
 8049cd5:	50                   	push   %eax
 8049cd6:	ff 75 fc             	pushl  -0x4(%ebp)
 8049cd9:	e8 6b ed ff ff       	call   8048a49 <simple_strtoul>
 8049cde:	83 c4 0c             	add    $0xc,%esp
 8049ce1:	89 c2                	mov    %eax,%edx
 8049ce3:	8b 45 c0             	mov    -0x40(%ebp),%eax
 8049ce6:	89 10                	mov    %edx,(%eax)
 8049ce8:	e9 ef 00 00 00       	jmp    8049ddc <vsscanf+0x684>
 8049ced:	83 7d e4 00          	cmpl   $0x0,-0x1c(%ebp)
 8049cf1:	74 30                	je     8049d23 <vsscanf+0x5cb>
 8049cf3:	83 45 10 04          	addl   $0x4,0x10(%ebp)
 8049cf7:	8b 45 10             	mov    0x10(%ebp),%eax
 8049cfa:	8b 40 fc             	mov    -0x4(%eax),%eax
 8049cfd:	89 45 bc             	mov    %eax,-0x44(%ebp)
 8049d00:	8b 45 ec             	mov    -0x14(%ebp),%eax
 8049d03:	83 ec 04             	sub    $0x4,%esp
 8049d06:	50                   	push   %eax
 8049d07:	8d 45 a8             	lea    -0x58(%ebp),%eax
 8049d0a:	50                   	push   %eax
 8049d0b:	ff 75 fc             	pushl  -0x4(%ebp)
 8049d0e:	e8 44 f0 ff ff       	call   8048d57 <simple_strtoll>
 8049d13:	83 c4 10             	add    $0x10,%esp
 8049d16:	8b 4d bc             	mov    -0x44(%ebp),%ecx
 8049d19:	89 01                	mov    %eax,(%ecx)
 8049d1b:	89 51 04             	mov    %edx,0x4(%ecx)
 8049d1e:	e9 b9 00 00 00       	jmp    8049ddc <vsscanf+0x684>
 8049d23:	83 45 10 04          	addl   $0x4,0x10(%ebp)
 8049d27:	8b 45 10             	mov    0x10(%ebp),%eax
 8049d2a:	8b 40 fc             	mov    -0x4(%eax),%eax
 8049d2d:	89 45 b8             	mov    %eax,-0x48(%ebp)
 8049d30:	8b 45 ec             	mov    -0x14(%ebp),%eax
 8049d33:	83 ec 04             	sub    $0x4,%esp
 8049d36:	50                   	push   %eax
 8049d37:	8d 45 a8             	lea    -0x58(%ebp),%eax
 8049d3a:	50                   	push   %eax
 8049d3b:	ff 75 fc             	pushl  -0x4(%ebp)
 8049d3e:	e8 6e ee ff ff       	call   8048bb1 <simple_strtoull>
 8049d43:	83 c4 10             	add    $0x10,%esp
 8049d46:	8b 4d b8             	mov    -0x48(%ebp),%ecx
 8049d49:	89 01                	mov    %eax,(%ecx)
 8049d4b:	89 51 04             	mov    %edx,0x4(%ecx)
 8049d4e:	e9 89 00 00 00       	jmp    8049ddc <vsscanf+0x684>
 8049d53:	83 45 10 04          	addl   $0x4,0x10(%ebp)
 8049d57:	8b 45 10             	mov    0x10(%ebp),%eax
 8049d5a:	8b 40 fc             	mov    -0x4(%eax),%eax
 8049d5d:	89 45 b4             	mov    %eax,-0x4c(%ebp)
 8049d60:	8b 45 ec             	mov    -0x14(%ebp),%eax
 8049d63:	83 ec 04             	sub    $0x4,%esp
 8049d66:	50                   	push   %eax
 8049d67:	8d 45 a8             	lea    -0x58(%ebp),%eax
 8049d6a:	50                   	push   %eax
 8049d6b:	ff 75 fc             	pushl  -0x4(%ebp)
 8049d6e:	e8 d6 ec ff ff       	call   8048a49 <simple_strtoul>
 8049d73:	83 c4 10             	add    $0x10,%esp
 8049d76:	89 c2                	mov    %eax,%edx
 8049d78:	8b 45 b4             	mov    -0x4c(%ebp),%eax
 8049d7b:	89 10                	mov    %edx,(%eax)
 8049d7d:	eb 5d                	jmp    8049ddc <vsscanf+0x684>
 8049d7f:	83 7d e4 00          	cmpl   $0x0,-0x1c(%ebp)
 8049d83:	74 2c                	je     8049db1 <vsscanf+0x659>
 8049d85:	83 45 10 04          	addl   $0x4,0x10(%ebp)
 8049d89:	8b 45 10             	mov    0x10(%ebp),%eax
 8049d8c:	8b 40 fc             	mov    -0x4(%eax),%eax
 8049d8f:	89 45 b0             	mov    %eax,-0x50(%ebp)
 8049d92:	8b 45 ec             	mov    -0x14(%ebp),%eax
 8049d95:	83 ec 04             	sub    $0x4,%esp
 8049d98:	50                   	push   %eax
 8049d99:	8d 45 a8             	lea    -0x58(%ebp),%eax
 8049d9c:	50                   	push   %eax
 8049d9d:	ff 75 fc             	pushl  -0x4(%ebp)
 8049da0:	e8 d3 ed ff ff       	call   8048b78 <simple_strtol>
 8049da5:	83 c4 10             	add    $0x10,%esp
 8049da8:	89 c2                	mov    %eax,%edx
 8049daa:	8b 45 b0             	mov    -0x50(%ebp),%eax
 8049dad:	89 10                	mov    %edx,(%eax)
 8049daf:	eb 2a                	jmp    8049ddb <vsscanf+0x683>
 8049db1:	83 45 10 04          	addl   $0x4,0x10(%ebp)
 8049db5:	8b 45 10             	mov    0x10(%ebp),%eax
 8049db8:	8b 40 fc             	mov    -0x4(%eax),%eax
 8049dbb:	89 45 ac             	mov    %eax,-0x54(%ebp)
 8049dbe:	8b 45 ec             	mov    -0x14(%ebp),%eax
 8049dc1:	83 ec 04             	sub    $0x4,%esp
 8049dc4:	50                   	push   %eax
 8049dc5:	8d 45 a8             	lea    -0x58(%ebp),%eax
 8049dc8:	50                   	push   %eax
 8049dc9:	ff 75 fc             	pushl  -0x4(%ebp)
 8049dcc:	e8 78 ec ff ff       	call   8048a49 <simple_strtoul>
 8049dd1:	83 c4 10             	add    $0x10,%esp
 8049dd4:	89 c2                	mov    %eax,%edx
 8049dd6:	8b 45 ac             	mov    -0x54(%ebp),%eax
 8049dd9:	89 10                	mov    %edx,(%eax)
 8049ddb:	90                   	nop
 8049ddc:	83 45 f4 01          	addl   $0x1,-0xc(%ebp)
 8049de0:	8b 45 a8             	mov    -0x58(%ebp),%eax
 8049de3:	85 c0                	test   %eax,%eax
 8049de5:	74 26                	je     8049e0d <vsscanf+0x6b5>
 8049de7:	8b 45 a8             	mov    -0x58(%ebp),%eax
 8049dea:	89 45 fc             	mov    %eax,-0x4(%ebp)
 8049ded:	8b 45 0c             	mov    0xc(%ebp),%eax
 8049df0:	0f b6 00             	movzbl (%eax),%eax
 8049df3:	84 c0                	test   %al,%al
 8049df5:	74 17                	je     8049e0e <vsscanf+0x6b6>
 8049df7:	8b 45 fc             	mov    -0x4(%ebp),%eax
 8049dfa:	0f b6 00             	movzbl (%eax),%eax
 8049dfd:	84 c0                	test   %al,%al
 8049dff:	0f 85 72 f9 ff ff    	jne    8049777 <vsscanf+0x1f>
 8049e05:	eb 07                	jmp    8049e0e <vsscanf+0x6b6>
 8049e07:	90                   	nop
 8049e08:	eb 04                	jmp    8049e0e <vsscanf+0x6b6>
 8049e0a:	90                   	nop
 8049e0b:	eb 01                	jmp    8049e0e <vsscanf+0x6b6>
 8049e0d:	90                   	nop
 8049e0e:	8b 45 f4             	mov    -0xc(%ebp),%eax
 8049e11:	c9                   	leave  
 8049e12:	c3                   	ret    

08049e13 <sscanf>:
 8049e13:	55                   	push   %ebp
 8049e14:	89 e5                	mov    %esp,%ebp
 8049e16:	83 ec 10             	sub    $0x10,%esp
 8049e19:	8d 45 10             	lea    0x10(%ebp),%eax
 8049e1c:	89 45 fc             	mov    %eax,-0x4(%ebp)
 8049e1f:	83 ec 04             	sub    $0x4,%esp
 8049e22:	ff 75 fc             	pushl  -0x4(%ebp)
 8049e25:	ff 75 0c             	pushl  0xc(%ebp)
 8049e28:	ff 75 08             	pushl  0x8(%ebp)
 8049e2b:	e8 28 f9 ff ff       	call   8049758 <vsscanf>
 8049e30:	83 c4 10             	add    $0x10,%esp
 8049e33:	89 45 f8             	mov    %eax,-0x8(%ebp)
 8049e36:	8b 45 f8             	mov    -0x8(%ebp),%eax
 8049e39:	c9                   	leave  
 8049e3a:	c3                   	ret    

08049e3b <printf>:
 8049e3b:	55                   	push   %ebp
 8049e3c:	89 e5                	mov    %esp,%ebp
 8049e3e:	83 ec 18             	sub    $0x18,%esp
 8049e41:	8d 45 0c             	lea    0xc(%ebp),%eax
 8049e44:	89 45 f0             	mov    %eax,-0x10(%ebp)
 8049e47:	83 ec 04             	sub    $0x4,%esp
 8049e4a:	ff 75 f0             	pushl  -0x10(%ebp)
 8049e4d:	ff 75 08             	pushl  0x8(%ebp)
 8049e50:	68 00 c1 04 08       	push   $0x804c100
 8049e55:	e8 b8 f8 ff ff       	call   8049712 <vsprintf>
 8049e5a:	83 c4 10             	add    $0x10,%esp
 8049e5d:	89 45 ec             	mov    %eax,-0x14(%ebp)
 8049e60:	c7 45 f4 00 00 00 00 	movl   $0x0,-0xc(%ebp)
 8049e67:	eb 1e                	jmp    8049e87 <printf+0x4c>
 8049e69:	8b 45 f4             	mov    -0xc(%ebp),%eax
 8049e6c:	05 00 c1 04 08       	add    $0x804c100,%eax
 8049e71:	0f b6 00             	movzbl (%eax),%eax
 8049e74:	0f be c0             	movsbl %al,%eax
 8049e77:	83 ec 0c             	sub    $0xc,%esp
 8049e7a:	50                   	push   %eax
 8049e7b:	e8 97 e3 ff ff       	call   8048217 <putc>
 8049e80:	83 c4 10             	add    $0x10,%esp
 8049e83:	83 45 f4 01          	addl   $0x1,-0xc(%ebp)
 8049e87:	83 ec 0c             	sub    $0xc,%esp
 8049e8a:	68 00 c1 04 08       	push   $0x804c100
 8049e8f:	e8 05 e7 ff ff       	call   8048599 <strlen>
 8049e94:	83 c4 10             	add    $0x10,%esp
 8049e97:	3b 45 f4             	cmp    -0xc(%ebp),%eax
 8049e9a:	7f cd                	jg     8049e69 <printf+0x2e>
 8049e9c:	8b 45 ec             	mov    -0x14(%ebp),%eax
 8049e9f:	c9                   	leave  
 8049ea0:	c3                   	ret    

08049ea1 <scanf>:
 8049ea1:	55                   	push   %ebp
 8049ea2:	89 e5                	mov    %esp,%ebp
 8049ea4:	83 ec 18             	sub    $0x18,%esp
 8049ea7:	c7 45 f4 00 00 00 00 	movl   $0x0,-0xc(%ebp)
 8049eae:	e8 34 e3 ff ff       	call   80481e7 <getc>
 8049eb3:	88 45 f3             	mov    %al,-0xd(%ebp)
 8049eb6:	0f b6 45 f3          	movzbl -0xd(%ebp),%eax
 8049eba:	0f be c0             	movsbl %al,%eax
 8049ebd:	83 ec 0c             	sub    $0xc,%esp
 8049ec0:	50                   	push   %eax
 8049ec1:	e8 51 e3 ff ff       	call   8048217 <putc>
 8049ec6:	83 c4 10             	add    $0x10,%esp
 8049ec9:	80 7d f3 0d          	cmpb   $0xd,-0xd(%ebp)
 8049ecd:	74 06                	je     8049ed5 <scanf+0x34>
 8049ecf:	80 7d f3 0a          	cmpb   $0xa,-0xd(%ebp)
 8049ed3:	75 0d                	jne    8049ee2 <scanf+0x41>
 8049ed5:	8b 45 f4             	mov    -0xc(%ebp),%eax
 8049ed8:	05 00 c5 04 08       	add    $0x804c500,%eax
 8049edd:	c6 00 00             	movb   $0x0,(%eax)
 8049ee0:	eb 15                	jmp    8049ef7 <scanf+0x56>
 8049ee2:	8b 45 f4             	mov    -0xc(%ebp),%eax
 8049ee5:	8d 50 01             	lea    0x1(%eax),%edx
 8049ee8:	89 55 f4             	mov    %edx,-0xc(%ebp)
 8049eeb:	0f b6 55 f3          	movzbl -0xd(%ebp),%edx
 8049eef:	88 90 00 c5 04 08    	mov    %dl,0x804c500(%eax)
 8049ef5:	eb b7                	jmp    8049eae <scanf+0xd>
 8049ef7:	8d 45 0c             	lea    0xc(%ebp),%eax
 8049efa:	89 45 ec             	mov    %eax,-0x14(%ebp)
 8049efd:	83 ec 04             	sub    $0x4,%esp
 8049f00:	ff 75 ec             	pushl  -0x14(%ebp)
 8049f03:	ff 75 08             	pushl  0x8(%ebp)
 8049f06:	68 00 c5 04 08       	push   $0x804c500
 8049f0b:	e8 48 f8 ff ff       	call   8049758 <vsscanf>
 8049f10:	83 c4 10             	add    $0x10,%esp
 8049f13:	89 45 f4             	mov    %eax,-0xc(%ebp)
 8049f16:	8b 45 f4             	mov    -0xc(%ebp),%eax
 8049f19:	c9                   	leave  
 8049f1a:	c3                   	ret    

08049f1b <main>:
 8049f1b:	8d 4c 24 04          	lea    0x4(%esp),%ecx
 8049f1f:	83 e4 f0             	and    $0xfffffff0,%esp
 8049f22:	ff 71 fc             	pushl  -0x4(%ecx)
 8049f25:	55                   	push   %ebp
 8049f26:	89 e5                	mov    %esp,%ebp
 8049f28:	53                   	push   %ebx
 8049f29:	51                   	push   %ecx
 8049f2a:	83 ec 10             	sub    $0x10,%esp
 8049f2d:	89 cb                	mov    %ecx,%ebx
 8049f2f:	83 ec 08             	sub    $0x8,%esp
 8049f32:	ff 33                	pushl  (%ebx)
 8049f34:	68 a5 a3 04 08       	push   $0x804a3a5
 8049f39:	e8 fd fe ff ff       	call   8049e3b <printf>
 8049f3e:	83 c4 10             	add    $0x10,%esp
 8049f41:	c7 45 f4 00 00 00 00 	movl   $0x0,-0xc(%ebp)
 8049f48:	eb 17                	jmp    8049f61 <main+0x46>
 8049f4a:	83 ec 08             	sub    $0x8,%esp
 8049f4d:	ff 75 f4             	pushl  -0xc(%ebp)
 8049f50:	68 b0 a3 04 08       	push   $0x804a3b0
 8049f55:	e8 e1 fe ff ff       	call   8049e3b <printf>
 8049f5a:	83 c4 10             	add    $0x10,%esp
 8049f5d:	83 45 f4 01          	addl   $0x1,-0xc(%ebp)
 8049f61:	8b 45 f4             	mov    -0xc(%ebp),%eax
 8049f64:	3b 03                	cmp    (%ebx),%eax
 8049f66:	7c e2                	jl     8049f4a <main+0x2f>
 8049f68:	eb fe                	jmp    8049f68 <main+0x4d>
